Archive member included to satisfy reference by file (symbol)

C:\gnat\2017\arm-eabi\lib\gnat\ravenscar-sfp-stm32f4\adalib\libgnarl.a(s-tposen.o)
                              C:\Users\u6013763\Documents\COMP4330Assi1\Objects\generator_controllers.o (system__tasking__protected_objects__single_entry__initialize_protection_entry)
C:\gnat\2017\arm-eabi\lib\gnat\ravenscar-sfp-stm32f4\adalib\libgnarl.a(s-tpobmu.o)
                              b__generator.o (system__tasking__protected_objects__multiprocessors___elabb)
C:\gnat\2017\arm-eabi\lib\gnat\ravenscar-sfp-stm32f4\adalib\libgnarl.a(s-taskin.o)
                              b__generator.o (__gl_main_priority)
C:\gnat\2017\arm-eabi\lib\gnat\ravenscar-sfp-stm32f4\adalib\libgnarl.a(s-tasdeb.o)
                              C:\gnat\2017\arm-eabi\lib\gnat\ravenscar-sfp-stm32f4\adalib\libgnarl.a(s-taskin.o) (system__tasking__debug__last_task)
C:\gnat\2017\arm-eabi\lib\gnat\ravenscar-sfp-stm32f4\adalib\libgnarl.a(s-tarest.o)
                              b__generator.o (__gnat_activate_all_tasks)
C:\gnat\2017\arm-eabi\lib\gnat\ravenscar-sfp-stm32f4\adalib\libgnarl.a(s-taprop.o)
                              C:\gnat\2017\arm-eabi\lib\gnat\ravenscar-sfp-stm32f4\adalib\libgnarl.a(s-tpobmu.o) (system__task_primitives__operations__get_cpu)
C:\gnat\2017\arm-eabi\lib\gnat\ravenscar-sfp-stm32f4\adalib\libgnarl.a(s-taprob.o)
                              C:\Users\u6013763\Documents\COMP4330Assi1\Objects\stm32f4-general_purpose_ios-ops.o (system__tasking__protected_objects__initialize_protection)
C:\gnat\2017\arm-eabi\lib\gnat\ravenscar-sfp-stm32f4\adalib\libgnarl.a(s-parame.o)
                              C:\gnat\2017\arm-eabi\lib\gnat\ravenscar-sfp-stm32f4\adalib\libgnarl.a(s-taskin.o) (system__parameters__adjust_storage_size)
C:\gnat\2017\arm-eabi\lib\gnat\ravenscar-sfp-stm32f4\adalib\libgnarl.a(s-interr.o)
                              C:\Users\u6013763\Documents\COMP4330Assi1\Objects\generator_controllers.o (system__interrupts__install_restricted_handlers)
C:\gnat\2017\arm-eabi\lib\gnat\ravenscar-sfp-stm32f4\adalib\libgnarl.a(s-bcprmu.o)
                              b__generator.o (__gnat_start_slave_cpus)
C:\gnat\2017\arm-eabi\lib\gnat\ravenscar-sfp-stm32f4\adalib\libgnarl.a(s-bbtiev.o)
                              C:\gnat\2017\arm-eabi\lib\gnat\ravenscar-sfp-stm32f4\adalib\libgnarl.a(s-bcprmu.o) (system__bb__timing_events__execute_expired_timing_events)
C:\gnat\2017\arm-eabi\lib\gnat\ravenscar-sfp-stm32f4\adalib\libgnarl.a(s-bbthre.o)
                              C:\gnat\2017\arm-eabi\lib\gnat\ravenscar-sfp-stm32f4\adalib\libgnarl.a(s-taskin.o) (system__bb__threads__initialize)
C:\gnat\2017\arm-eabi\lib\gnat\ravenscar-sfp-stm32f4\adalib\libgnarl.a(s-bbthqu.o)
                              C:\gnat\2017\arm-eabi\lib\gnat\ravenscar-sfp-stm32f4\adalib\libgnarl.a(s-taskin.o) (system__bb__threads__queues__change_priority)
C:\gnat\2017\arm-eabi\lib\gnat\ravenscar-sfp-stm32f4\adalib\libgnarl.a(s-bbprot.o)
                              C:\gnat\2017\arm-eabi\lib\gnat\ravenscar-sfp-stm32f4\adalib\libgnarl.a(s-taskin.o) (system__bb__protection__leave_kernel)
C:\gnat\2017\arm-eabi\lib\gnat\ravenscar-sfp-stm32f4\adalib\libgnarl.a(a-sytaco.o)
                              C:\Users\u6013763\Documents\COMP4330Assi1\Objects\generator_controllers.o (ada__synchronous_task_control__set_true)
C:\gnat\2017\arm-eabi\lib\gnat\ravenscar-sfp-stm32f4\adalib\libgnarl.a(a-retide.o)
                              generator.o (ada__real_time__delays__delay_until)
C:\gnat\2017\arm-eabi\lib\gnat\ravenscar-sfp-stm32f4\adalib\libgnarl.a(a-reatim.o)
                              generator.o (ada__real_time__Oadd)
C:\gnat\2017\arm-eabi\lib\gnat\ravenscar-sfp-stm32f4\adalib\libgnarl.a(handler.o)
                              C:\gnat\2017\arm-eabi\lib\gnat\ravenscar-sfp-stm32f4\adalib\libgnarl.a(s-bbthre.o) (__vectors)
C:\gnat\2017\arm-eabi\lib\gnat\ravenscar-sfp-stm32f4\adalib\libgnarl.a(s-bbinte.o)
                              C:\gnat\2017\arm-eabi\lib\gnat\ravenscar-sfp-stm32f4\adalib\libgnarl.a(s-taprop.o) (system__bb__interrupts__current_interrupt)
C:\gnat\2017\arm-eabi\lib\gnat\ravenscar-sfp-stm32f4\adalib\libgnarl.a(s-bbbosu.o)
                              C:\gnat\2017\arm-eabi\lib\gnat\ravenscar-sfp-stm32f4\adalib\libgnarl.a(s-taprop.o) (system__bb__board_support__time__read_clock)
C:\gnat\2017\arm-eabi\lib\gnat\ravenscar-sfp-stm32f4\adalib\libgnarl.a(s-bbtime.o)
                              C:\gnat\2017\arm-eabi\lib\gnat\ravenscar-sfp-stm32f4\adalib\libgnarl.a(s-bbtiev.o) (system__bb__time__get_next_timeout)
C:\gnat\2017\arm-eabi\lib\gnat\ravenscar-sfp-stm32f4\adalib\libgnarl.a(s-bbcppr.o)
                              C:\gnat\2017\arm-eabi\lib\gnat\ravenscar-sfp-stm32f4\adalib\libgnarl.a(s-bbbosu.o) (system__bb__cpu_primitives__install_trap_handler)
C:\gnat\2017\arm-eabi\lib\gnat\ravenscar-sfp-stm32f4\adalib\libgnat.a(start-rom.o)
                              (_start_rom)
C:\gnat\2017\arm-eabi\lib\gnat\ravenscar-sfp-stm32f4\adalib\libgnat.a(start-common.o)
                              C:\gnat\2017\arm-eabi\lib\gnat\ravenscar-sfp-stm32f4\adalib\libgnat.a(start-rom.o) (_stm32_start_common)
C:\gnat\2017\arm-eabi\lib\gnat\ravenscar-sfp-stm32f4\adalib\libgnat.a(breakpoint_handler.o)
                              C:\gnat\2017\arm-eabi\lib\gnat\ravenscar-sfp-stm32f4\adalib\libgnarl.a(handler.o) (__gnat_bkpt_trap)
C:\gnat\2017\arm-eabi\lib\gnat\ravenscar-sfp-stm32f4\adalib\libgnat.a(setup_pll.o)
                              C:\gnat\2017\arm-eabi\lib\gnat\ravenscar-sfp-stm32f4\adalib\libgnat.a(start-rom.o) (_ada_setup_pll)
C:\gnat\2017\arm-eabi\lib\gnat\ravenscar-sfp-stm32f4\adalib\libgnat.a(s-macres.o)
                              C:\gnat\2017\arm-eabi\lib\gnat\ravenscar-sfp-stm32f4\adalib\libgnat.a(start-rom.o) (_exit)
C:\gnat\2017\arm-eabi\lib\gnat\ravenscar-sfp-stm32f4\adalib\libgnat.a(s-assert.o)
                              C:\Users\u6013763\Documents\COMP4330Assi1\Objects\stm32f4-general_purpose_ios-ops.o (system__assertions__raise_assert_failure)
C:\gnat\2017\arm-eabi\lib\gnat\ravenscar-sfp-stm32f4\adalib\libgnat.a(s-fatflt.o)
                              C:\Users\u6013763\Documents\COMP4330Assi1\Objects\generator_controllers.o (system__fat_flt__attr_float__valid)
C:\gnat\2017\arm-eabi\lib\gnat\ravenscar-sfp-stm32f4\adalib\libgnat.a(s-memset.o)
                              C:\gnat\2017\arm-eabi\lib\gnat\ravenscar-sfp-stm32f4\adalib\libgnarl.a(s-bbthre.o) (memset)
C:\gnat\2017\arm-eabi\lib\gnat\ravenscar-sfp-stm32f4\adalib\libgnat.a(s-memcom.o)
                              C:\gnat\2017\arm-eabi\lib\gnat\ravenscar-sfp-stm32f4\adalib\libgnarl.a(s-tarest.o) (memcmp)
C:\gnat\2017\arm-eabi\lib\gnat\ravenscar-sfp-stm32f4\adalib\libgnat.a(s-secsta.o)
                              C:\gnat\2017\arm-eabi\lib\gnat\ravenscar-sfp-stm32f4\adalib\libgnarl.a(s-taskin.o) (system__secondary_stack__ss_init)
C:\gnat\2017\arm-eabi\lib\gnat\ravenscar-sfp-stm32f4\adalib\libgnat.a(s-bbmcpa.o)
                              C:\gnat\2017\arm-eabi\lib\gnat\ravenscar-sfp-stm32f4\adalib\libgnat.a(setup_pll.o) (system__bb__mcu_parameters__pwr_initialize)
c:/gnat/2017/bin/../lib/gcc/arm-eabi/6.3.1/armv7em/thumb/fpu/fpv4-sp-d16\libgcc.a(_arm_addsubdf3.o)
                              C:\Users\u6013763\Documents\COMP4330Assi1\Objects\generator_controllers.o (__aeabi_l2d)
c:/gnat/2017/bin/../lib/gcc/arm-eabi/6.3.1/armv7em/thumb/fpu/fpv4-sp-d16\libgcc.a(_arm_muldivdf3.o)
                              C:\Users\u6013763\Documents\COMP4330Assi1\Objects\generator_controllers.o (__aeabi_dmul)
c:/gnat/2017/bin/../lib/gcc/arm-eabi/6.3.1/armv7em/thumb/fpu/fpv4-sp-d16\libgcc.a(_arm_truncdfsf2.o)
                              C:\Users\u6013763\Documents\COMP4330Assi1\Objects\generator_controllers.o (__aeabi_d2f)
c:/gnat/2017/bin/../lib/gcc/arm-eabi/6.3.1/armv7em/thumb/fpu/fpv4-sp-d16\libgcc.a(_aeabi_ldivmod.o)
                              C:\Users\u6013763\Documents\COMP4330Assi1\Objects\generator_controllers.o (__aeabi_ldivmod)
c:/gnat/2017/bin/../lib/gcc/arm-eabi/6.3.1/armv7em/thumb/fpu/fpv4-sp-d16\libgcc.a(_aeabi_uldivmod.o)
                              C:\gnat\2017\arm-eabi\lib\gnat\ravenscar-sfp-stm32f4\adalib\libgnarl.a(a-reatim.o) (__aeabi_uldivmod)
c:/gnat/2017/bin/../lib/gcc/arm-eabi/6.3.1/armv7em/thumb/fpu/fpv4-sp-d16\libgcc.a(_udivmoddi4.o)
                              c:/gnat/2017/bin/../lib/gcc/arm-eabi/6.3.1/armv7em/thumb/fpu/fpv4-sp-d16\libgcc.a(_aeabi_ldivmod.o) (__udivmoddi4)
c:/gnat/2017/bin/../lib/gcc/arm-eabi/6.3.1/armv7em/thumb/fpu/fpv4-sp-d16\libgcc.a(_dvmd_tls.o)
                              c:/gnat/2017/bin/../lib/gcc/arm-eabi/6.3.1/armv7em/thumb/fpu/fpv4-sp-d16\libgcc.a(_aeabi_ldivmod.o) (__aeabi_ldiv0)

Memory Configuration

Name             Origin             Length             Attributes
flash            0x08000000         0x00100000         xr
sram12           0x20000000         0x00020000         xrw
ccm              0x10000000         0x00010000         rw
*default*        0x00000000         0xffffffff

Linker script and memory map

LOAD generator.o
LOAD b__generator.o
LOAD C:\Users\u6013763\Documents\COMP4330Assi1\Objects\anu_base_board.o
LOAD C:\Users\u6013763\Documents\COMP4330Assi1\Objects\discovery_board.o
LOAD C:\Users\u6013763\Documents\COMP4330Assi1\Objects\stm32f4.o
LOAD C:\Users\u6013763\Documents\COMP4330Assi1\Objects\stm32f4-general_purpose_ios.o
LOAD C:\Users\u6013763\Documents\COMP4330Assi1\Objects\discovery_board-config.o
LOAD C:\Users\u6013763\Documents\COMP4330Assi1\Objects\stm32f4-general_purpose_ios-ops.o
LOAD C:\Users\u6013763\Documents\COMP4330Assi1\Objects\stm32f4-interrupts_and_events.o
LOAD C:\Users\u6013763\Documents\COMP4330Assi1\Objects\stm32f4-interrupts_and_events-ops.o
LOAD C:\Users\u6013763\Documents\COMP4330Assi1\Objects\stm32f4-reset_and_clock_control.o
LOAD C:\Users\u6013763\Documents\COMP4330Assi1\Objects\stm32f4-system_configuration_controller.o
LOAD C:\Users\u6013763\Documents\COMP4330Assi1\Objects\stm32f4-system_configuration_controller-ops.o
LOAD C:\Users\u6013763\Documents\COMP4330Assi1\Objects\stm32f4-timers.o
LOAD C:\Users\u6013763\Documents\COMP4330Assi1\Objects\stm32f4-reset_and_clock_control-ops.o
LOAD C:\Users\u6013763\Documents\COMP4330Assi1\Objects\led_handling.o
LOAD C:\Users\u6013763\Documents\COMP4330Assi1\Objects\discovery_board-led_interface.o
LOAD C:\Users\u6013763\Documents\COMP4330Assi1\Objects\last_chance_handler.o
LOAD C:\Users\u6013763\Documents\COMP4330Assi1\Objects\stm32f4-usart.o
LOAD C:\Users\u6013763\Documents\COMP4330Assi1\Objects\anu_base_board-config.o
LOAD C:\Users\u6013763\Documents\COMP4330Assi1\Objects\anu_base_board-com_interface.o
LOAD C:\Users\u6013763\Documents\COMP4330Assi1\Objects\anu_base_board-led_interface.o
LOAD C:\Users\u6013763\Documents\COMP4330Assi1\Objects\generator_controllers.o
LOAD C:\gnat\2017\arm-eabi\lib\gnat\ravenscar-sfp-stm32f4\adalib\libgnarl.a
LOAD C:\gnat\2017\arm-eabi\lib\gnat\ravenscar-sfp-stm32f4\adalib\libgnat.a
START GROUP
LOAD c:/gnat/2017/bin/../lib/gcc/arm-eabi/6.3.1/armv7em/thumb/fpu/fpv4-sp-d16\libgcc.a
END GROUP
                0x00000000                __DYNAMIC = 0x0
                0x00001000                _DEFAULT_STACK_SIZE = 0x1000

.text           0x08000000     0xa2fc
 *(.vectors)
 .vectors       0x08000000       0x14 C:\gnat\2017\arm-eabi\lib\gnat\ravenscar-sfp-stm32f4\adalib\libgnat.a(start-rom.o)
 *(.text .text.* .gnu.linkonce.t*)
 .text          0x08000014       0x44 generator.o
                0x08000014                _ada_generator
 .text          0x08000058      0x110 b__generator.o
                0x08000058                adainit
 .text.startup  0x08000168       0x1c b__generator.o
                0x08000168                main
 .text          0x08000184       0x30 C:\Users\u6013763\Documents\COMP4330Assi1\Objects\anu_base_board.o
                0x08000184                anu_base_board(long,...)(double, short, int0_t)
                0x0800019c                anu_base_board__comsIP
 .text          0x080001b4        0x0 C:\Users\u6013763\Documents\COMP4330Assi1\Objects\discovery_board.o
 .text          0x080001b4       0x6c C:\Users\u6013763\Documents\COMP4330Assi1\Objects\stm32f4.o
                0x080001b4                stm32f4__bit_arrayIP
                0x080001b8                stm32f4__enabler_arrayIP
                0x080001bc                stm32f4__disabler_arrayIP
                0x080001c0                stm32f4__switch_arrayIP
                0x080001c4                stm32f4__readiness_arrayIP
                0x080001c8                stm32f4__bypass_arrayIP
                0x080001cc                stm32f4__lock_arrayIP
                0x080001d0                stm32f4__mask_arrayIP
                0x080001d4                stm32f4__event_arrayIP
                0x080001d8                stm32f4__pending_arrayIP
                0x080001dc                stm32f4__direction_arrayIP
                0x080001e0                stm32f4__buffering_arrayIP
                0x080001e4                stm32f4__inverter_arrayIP
                0x080001e8                stm32f4__occurance_arrayIP
                0x080001ec                stm32f4__generator_arrayIP
                0x080001f0                stm32f4__polarity_arrayIP
                0x080001f4                stm32f4__resetting_arrayIP
                0x080001f8                stm32f4__setting_arrayIP
                0x080001fc                stm32f4__flagging_arrayIP
                0x08000200                stm32f4__clearing_arrayIP
                0x08000204                stm32f4__status_arrayIP
                0x08000208                stm32f4__detection_arrayIP
                0x0800020c                stm32f4__sending_arrayIP
                0x08000210                stm32f4__muting_arrayIP
                0x08000214                stm32f4__parity_arrayIP
                0x08000218                stm32f4__completed_arrayIP
                0x0800021c                stm32f4__starter_arrayIP
 .text          0x08000220       0x50 C:\Users\u6013763\Documents\COMP4330Assi1\Objects\stm32f4-general_purpose_ios.o
                0x08000220                stm32f4__general_purpose_ios__Tmoder_arrayBIP
                0x08000224                stm32f4__general_purpose_ios__Totyper_arrayBIP
                0x08000228                stm32f4__general_purpose_ios__Tospeedr_arrayBIP
                0x0800022c                stm32f4__general_purpose_ios__Tpupdr_arrayBIP
                0x08000230                stm32f4__general_purpose_ios__gpiox_bsrrIP
                0x08000234                stm32f4__general_purpose_ios__gpiox_lckrIP
                0x08000238                stm32f4__general_purpose_ios__Tafrl_arrayBIP
                0x0800023c                stm32f4__general_purpose_ios__Tafrh_arrayBIP
                0x08000240                stm32f4__general_purpose_ios__gpiox_registerIP
                0x08000244                stm32f4__general_purpose_ios__port_pinIP
                0x08000248                stm32f4__general_purpose_ios__port_pinsIP
                0x0800024c                stm32f4__general_purpose_ios__gpiox
 .text          0x08000270        0x0 C:\Users\u6013763\Documents\COMP4330Assi1\Objects\discovery_board-config.o
 .text          0x08000270      0xbd4 C:\Users\u6013763\Documents\COMP4330Assi1\Objects\stm32f4-general_purpose_ios-ops.o
                0x08000270                stm32f4__general_purpose_ios__ops__atomic_switchTVIP
                0x08000278                stm32f4__general_purpose_ios__ops__pin_setsIP
                0x0800027c                stm32f4__general_purpose_ios__ops__finalize_spec
                0x08000280                stm32f4__general_purpose_ios__ops__set
                0x080002c4                stm32f4__general_purpose_ios__ops__set__2
                0x08000330                stm32f4__general_purpose_ios__ops__reset
                0x08000374                stm32f4__general_purpose_ios__ops__reset__2
                0x080003e0                stm32f4__general_purpose_ios__ops__set_reset
                0x080004a0                stm32f4__general_purpose_ios__ops__output_write
                0x080004ec                stm32f4__general_purpose_ios__ops__output_read
                0x0800052c                stm32f4__general_purpose_ios__ops__input_read
                0x0800056c                stm32f4__general_purpose_ios__ops__atomic_switch__toggleN
                0x080005cc                stm32f4__general_purpose_ios__ops__atomic_switch__toggleP
                0x080005e8                stm32f4__general_purpose_ios__ops__read_mode
                0x08000628                stm32f4__general_purpose_ios__ops__read_output_type
                0x08000668                stm32f4__general_purpose_ios__ops__read_output_speed
                0x080006a8                stm32f4__general_purpose_ios__ops__read_pull
                0x080006e8                stm32f4__general_purpose_ios__ops__is_locked
                0x08000728                stm32f4__general_purpose_ios__ops__initialize_pin
                0x080008f0                stm32f4__general_purpose_ios__ops__initialize_output_pin
                0x08000ac8                stm32f4__general_purpose_ios__ops__initialize_input_pin
                0x08000bd4                stm32f4__general_purpose_ios__ops__set_mode
                0x08000c2c                stm32f4__general_purpose_ios__ops__set_output_type
                0x08000c9c                stm32f4__general_purpose_ios__ops__set_output_speed
                0x08000d04                stm32f4__general_purpose_ios__ops__set_pull
                0x08000d5c                stm32f4__general_purpose_ios__ops__lock_pin
                0x08000dfc                stm32f4__general_purpose_ios__ops__set_reset_register_address
                0x08000e28                stm32f4__general_purpose_ios__ops___elabs
 .text.unlikely
                0x08000e44       0x38 C:\Users\u6013763\Documents\COMP4330Assi1\Objects\stm32f4-general_purpose_ios-ops.o
 .text          0x08000e7c        0x4 C:\Users\u6013763\Documents\COMP4330Assi1\Objects\stm32f4-interrupts_and_events.o
                0x08000e7c                stm32f4__interrupts_and_events__exti_registerIP
 .text          0x08000e80      0x13c C:\Users\u6013763\Documents\COMP4330Assi1\Objects\stm32f4-interrupts_and_events-ops.o
                0x08000e80                stm32f4__interrupts_and_events__ops__set_trigger
                0x08000ed0                stm32f4__interrupts_and_events__ops__masking
                0x08000f3c                stm32f4__interrupts_and_events__ops__generate
                0x08000f68                stm32f4__interrupts_and_events__ops__happened
                0x08000f90                stm32f4__interrupts_and_events__ops__clear_interrupt
 .text          0x08000fbc       0xa0 C:\Users\u6013763\Documents\COMP4330Assi1\Objects\stm32f4-reset_and_clock_control.o
                0x08000fbc                stm32f4__reset_and_clock_control__rcc_crIP
                0x08000fc0                stm32f4__reset_and_clock_control__rcc_pllcfgrIP
                0x08000fc4                stm32f4__reset_and_clock_control__hpre_optionsRP
                0x08000fd8                stm32f4__reset_and_clock_control__ppre_optionsRP
                0x08000fec                stm32f4__reset_and_clock_control__mcopre_optionsRP
                0x08001004                stm32f4__reset_and_clock_control__rcc_cfgrIP
                0x08001008                stm32f4__reset_and_clock_control__rcc_cirIP
                0x0800100c                stm32f4__reset_and_clock_control__rcc_ahb1rstrIP
                0x08001010                stm32f4__reset_and_clock_control__rcc_ahb2rstrIP
                0x08001014                stm32f4__reset_and_clock_control__rcc_ahb3rstrIP
                0x08001018                stm32f4__reset_and_clock_control__rcc_apb1rstrIP
                0x0800101c                stm32f4__reset_and_clock_control__rcc_apb2rstrIP
                0x08001020                stm32f4__reset_and_clock_control__rcc_ahb1enrIP
                0x08001024                stm32f4__reset_and_clock_control__rcc_ahb2enrIP
                0x08001028                stm32f4__reset_and_clock_control__rcc_ahb3enrIP
                0x0800102c                stm32f4__reset_and_clock_control__rcc_apb1enrIP
                0x08001030                stm32f4__reset_and_clock_control__rcc_apb2enrIP
                0x08001034                stm32f4__reset_and_clock_control__rcc_ahb1lpenrIP
                0x08001038                stm32f4__reset_and_clock_control__rcc_ahb2lpenrIP
                0x0800103c                stm32f4__reset_and_clock_control__rcc_ahb3lpenrIP
                0x08001040                stm32f4__reset_and_clock_control__rcc_apb1lpenrIP
                0x08001044                stm32f4__reset_and_clock_control__rcc_apb2lpenrIP
                0x08001048                stm32f4__reset_and_clock_control__rcc_bdcrIP
                0x0800104c                stm32f4__reset_and_clock_control__rcc_csrIP
                0x08001050                stm32f4__reset_and_clock_control__rcc_sscgrIP
                0x08001054                stm32f4__reset_and_clock_control__rcc_plli2scfgrIP
                0x08001058                stm32f4__reset_and_clock_control__rcc_registerIP
 .text          0x0800105c       0x20 C:\Users\u6013763\Documents\COMP4330Assi1\Objects\stm32f4-system_configuration_controller.o
                0x0800105c                stm32f4__system_configuration_controller__syscfg_memrmpIP
                0x08001060                stm32f4__system_configuration_controller__syscfg_pmcIP
                0x08001064                stm32f4__system_configuration_controller__syscfg_exticr1IP
                0x08001068                stm32f4__system_configuration_controller__syscfg_exticr2IP
                0x0800106c                stm32f4__system_configuration_controller__syscfg_exticr3IP
                0x08001070                stm32f4__system_configuration_controller__syscfg_exticr4IP
                0x08001074                stm32f4__system_configuration_controller__syscfg_cmpcrIP
                0x08001078                stm32f4__system_configuration_controller__syscfg_registerIP
 .text          0x0800107c      0x280 C:\Users\u6013763\Documents\COMP4330Assi1\Objects\stm32f4-system_configuration_controller-ops.o
                0x0800107c                stm32f4__system_configuration_controller__ops__set_interrupt_source
                0x0800123c                stm32f4__system_configuration_controller__ops__read_interrupt_source
 .text          0x080012fc      0x5e0 C:\Users\u6013763\Documents\COMP4330Assi1\Objects\stm32f4-timers.o
                0x080012fc                stm32f4__timers__tim_1_8_timx_cr1IP
                0x08001300                stm32f4__timers__tim_1_8_timx_cr2IP
                0x08001304                stm32f4__timers__etf_optionsRP
                0x08001318                stm32f4__timers__tim_1_8_timx_smcrIP
                0x0800131c                stm32f4__timers__tim_1_8_timx_dierIP
                0x08001320                stm32f4__timers__tim_1_8_timx_srIP
                0x08001324                stm32f4__timers__tim_1_8_timx_egrIP
                0x08001328                stm32f4__timers__tim_1_8_timx_ccmr1_captureIP
                0x0800132c                stm32f4__timers__tim_1_8_timx_ccmr1_compareIP
                0x08001330                stm32f4__timers__tim_1_8_timx_ccmr1EQ
                0x08001440                stm32f4__timers__tim_1_8_timx_ccmr1IP
                0x08001444                stm32f4__timers__tim_1_8_timx_ccmr2_captureIP
                0x08001448                stm32f4__timers__tim_1_8_timx_ccmr2_compareIP
                0x0800144c                stm32f4__timers__tim_1_8_timx_ccmr2EQ
                0x0800155c                stm32f4__timers__tim_1_8_timx_ccmr2IP
                0x08001560                stm32f4__timers__tim_1_8_timx_ccerIP
                0x08001564                stm32f4__timers__tim_1_8_timx_bdtrIP
                0x08001568                stm32f4__timers__tim_1_8_timx_dcrIP
                0x0800156c                stm32f4__timers__tim_1_8_registerEQ
                0x0800157c                stm32f4__timers__tim_1_8_registerIP
                0x08001580                stm32f4__timers__tim_2_to_5_timx_cr1IP
                0x08001584                stm32f4__timers__tim_2_to_5_timx_dierIP
                0x08001588                stm32f4__timers__tim_2_to_5_timx_srIP
                0x0800158c                stm32f4__timers__tim_2_to_5_timx_egrIP
                0x08001590                stm32f4__timers__tim_2_to_5_timx_ccerIP
                0x08001594                stm32f4__timers__tim_2_to_5_registerEQ
                0x080015a4                stm32f4__timers__tim_2_to_5_registerIP
                0x080015a8                stm32f4__timers__tim_6_7_timx_cr1IP
                0x080015ac                stm32f4__timers__tim_6_7_timx_cr2IP
                0x080015b0                stm32f4__timers__tim_6_7_timx_dierIP
                0x080015b4                stm32f4__timers__tim_6_7_timx_srIP
                0x080015b8                stm32f4__timers__tim_6_7_timx_egrIP
                0x080015bc                stm32f4__timers__tim_6_7_registerIP
                0x080015c0                stm32f4__timers__tim_9_12_timx_cr1IP
                0x080015c4                stm32f4__timers__tim_9_12_timx_smcrIP
                0x080015c8                stm32f4__timers__tim_9_12_timx_dierIP
                0x080015cc                stm32f4__timers__tim_9_12_timx_srIP
                0x080015d0                stm32f4__timers__tim_9_12_timx_egrIP
                0x080015d4                stm32f4__timers__tim_9_12_timx_ccmr1_captureIP
                0x080015d8                stm32f4__timers__tim_9_12_timx_ccmr1_compareIP
                0x080015dc                stm32f4__timers__tim_9_12_timx_ccmr1EQ
                0x080016f0                stm32f4__timers__tim_9_12_timx_ccmr1IP
                0x080016f4                stm32f4__timers__tim_9_12_timx_ccerIP
                0x080016f8                stm32f4__timers__tim_9_12_registerEQ
                0x08001708                stm32f4__timers__tim_9_12_registerIP
                0x0800170c                stm32f4__timers__tim_10_11_13_14_timx_cr1IP
                0x08001710                stm32f4__timers__tim_10_11_13_14_timx_dierIP
                0x08001714                stm32f4__timers__tim_10_11_13_14_timx_srIP
                0x08001718                stm32f4__timers__tim_10_11_13_14_timx_egrIP
                0x0800171c                stm32f4__timers__tim_10_11_13_14_timx_ccmr1_captureIP
                0x08001720                stm32f4__timers__tim_10_11_13_14_timx_ccmr1_compareIP
                0x08001724                stm32f4__timers__tim_10_11_13_14_timx_ccmr1EQ
                0x080017c4                stm32f4__timers__tim_10_11_13_14_timx_ccmr1IP
                0x080017c8                stm32f4__timers__tim_10_11_13_14_timx_ccerIP
                0x080017cc                stm32f4__timers__tim_10_11_13_14_registerEQ
                0x080017dc                stm32f4__timers__tim_10_11_13_14_registerIP
                0x080017e0                stm32f4__timers__tim_1_8
                0x08001814                stm32f4__timers__tim_2_to_5
                0x08001844                stm32f4__timers__tim_6_7
                0x08001878                stm32f4__timers__tim_9_12
                0x080018ac                stm32f4__timers__tim_10_11_13_14
 .text          0x080018dc     0x2780 C:\Users\u6013763\Documents\COMP4330Assi1\Objects\stm32f4-reset_and_clock_control-ops.o
                0x080018dc                stm32f4__reset_and_clock_control__ops__enable_disable
                0x08001dd8                stm32f4__reset_and_clock_control__ops__enable_disable_low_power
                0x080022d4                stm32f4__reset_and_clock_control__ops__enable
                0x08002800                stm32f4__reset_and_clock_control__ops__disable
                0x08002d2c                stm32f4__reset_and_clock_control__ops__reset
                0x08002ee8                stm32f4__reset_and_clock_control__ops__release
                0x080030a4                stm32f4__reset_and_clock_control__ops__enable_disable__2
                0x080031c8                stm32f4__reset_and_clock_control__ops__enable_disable_low_power__2
                0x080032ec                stm32f4__reset_and_clock_control__ops__enable__2
                0x08003444                stm32f4__reset_and_clock_control__ops__disable__2
                0x0800359c                stm32f4__reset_and_clock_control__ops__reset__2
                0x08003620                stm32f4__reset_and_clock_control__ops__release__2
                0x080036a4                stm32f4__reset_and_clock_control__ops__enable_disable__3
                0x0800388c                stm32f4__reset_and_clock_control__ops__enable_disable_low_power__3
                0x08003a74                stm32f4__reset_and_clock_control__ops__enable__3
                0x08003c70                stm32f4__reset_and_clock_control__ops__disable__3
                0x08003e6c                stm32f4__reset_and_clock_control__ops__reset__3
                0x08003f64                stm32f4__reset_and_clock_control__ops__release__3
 .text          0x0800405c      0x208 C:\Users\u6013763\Documents\COMP4330Assi1\Objects\led_handling.o
                0x0800405c                led_handling__initialize
                0x08004244                led_handling__initialize__2
 .text          0x08004264      0x22c C:\Users\u6013763\Documents\COMP4330Assi1\Objects\discovery_board-led_interface.o
                0x08004264                discovery_board__led_interface__on
                0x080042bc                discovery_board__led_interface__off
                0x08004314                discovery_board__led_interface__all_on
                0x08004378                discovery_board__led_interface__all_off
                0x080043dc                discovery_board__led_interface__toggle
                0x08004408                discovery_board__led_interface___elabb
 .text          0x08004490       0x34 C:\Users\u6013763\Documents\COMP4330Assi1\Objects\last_chance_handler.o
                0x08004490                __gnat_last_chance_handler
 .text          0x080044c4      0x114 C:\Users\u6013763\Documents\COMP4330Assi1\Objects\stm32f4-usart.o
                0x080044c4                stm32f4__usart__usart_srIP
                0x080044c8                stm32f4__usart__usart_brrIP
                0x080044cc                stm32f4__usart__usart_cr1IP
                0x080044d0                stm32f4__usart__usart_cr2IP
                0x080044d4                stm32f4__usart__astop_optionsRP
                0x080044e4                stm32f4__usart__uart_cr2IP
                0x080044e8                stm32f4__usart__usart_cr3IP
                0x080044ec                stm32f4__usart__uart_cr3IP
                0x080044f0                stm32f4__usart__usart_gtprIP
                0x080044f4                stm32f4__usart__usart_drIP
                0x080044f8                stm32f4__usart__usart_registerIP
                0x080044fc                stm32f4__usart__uart_registerIP
                0x08004500                stm32f4__usart__usarts_onlyPredicate
                0x08004514                stm32f4__usart__uart_connectionD2
                0x08004524                stm32f4__usart__uart_connectionD3
                0x08004540                stm32f4__usart__uart_connectionEQ
                0x08004560                stm32f4__usart__uart_connectionIP
                0x08004584                stm32f4__usart__usartx
                0x080045a8                stm32f4__usart__uartx
 .text          0x080045d8        0x0 C:\Users\u6013763\Documents\COMP4330Assi1\Objects\anu_base_board-config.o
 .text          0x080045d8      0x59c C:\Users\u6013763\Documents\COMP4330Assi1\Objects\anu_base_board-com_interface.o
                0x080045d8                anu_base_board__com_interface__set
                0x08004644                anu_base_board__com_interface__reset
                0x080046b0                anu_base_board__com_interface__toggle
                0x080046e0                anu_base_board__com_interface__read
                0x08004748                anu_base_board__com_interface___elabb
 .text.unlikely
                0x08004b74       0x74 C:\Users\u6013763\Documents\COMP4330Assi1\Objects\anu_base_board-com_interface.o
 .text          0x08004be8      0x338 C:\Users\u6013763\Documents\COMP4330Assi1\Objects\anu_base_board-led_interface.o
                0x08004be8                anu_base_board__led_interface__on
                0x08004c64                anu_base_board__led_interface__off
                0x08004ce0                anu_base_board__led_interface__all_on
                0x08004d50                anu_base_board__led_interface__all_off
                0x08004dc0                anu_base_board__led_interface__toggle
                0x08004e18                anu_base_board__led_interface__to_wire
                0x08004e64                anu_base_board__led_interface___elabb
 .text          0x08004f20      0xdbc C:\Users\u6013763\Documents\COMP4330Assi1\Objects\generator_controllers.o
                0x080056ec                generator_controllers__Tcom_ports_semaphoreBIP
                0x08005740                generator_controllers__Tcom_ports_fallingBIP
                0x08005744                generator_controllers__com_port_readerTVIP
                0x08005780                generator_controllers__com_port_receiverVIP
                0x080057e4                generator_controllers__com_port_senderTKVIP
                0x08005848                generator_controllers__signal_generatorTKVIP
                0x080058ac                generator_controllers___elabb
 .text          0x08005cdc        0x0 C:\gnat\2017\arm-eabi\lib\gnat\ravenscar-sfp-stm32f4\adalib\libgnarl.a(s-tposen.o)
 .text.system__tasking__protected_objects__single_entry__initialize_protection_entry
                0x08005cdc       0x18 C:\gnat\2017\arm-eabi\lib\gnat\ravenscar-sfp-stm32f4\adalib\libgnarl.a(s-tposen.o)
                0x08005cdc                system__tasking__protected_objects__single_entry__initialize_protection_entry
 .text.system__tasking__protected_objects__single_entry__lock_entry
                0x08005cf4        0x4 C:\gnat\2017\arm-eabi\lib\gnat\ravenscar-sfp-stm32f4\adalib\libgnarl.a(s-tposen.o)
                0x08005cf4                system__tasking__protected_objects__single_entry__lock_entry
 .text.system__tasking__protected_objects__single_entry__protected_count_entry
                0x08005cf8        0xc C:\gnat\2017\arm-eabi\lib\gnat\ravenscar-sfp-stm32f4\adalib\libgnarl.a(s-tposen.o)
                0x08005cf8                system__tasking__protected_objects__single_entry__protected_count_entry
 .text.system__tasking__protected_objects__single_entry__protected_single_entry_call
                0x08005d04       0x84 C:\gnat\2017\arm-eabi\lib\gnat\ravenscar-sfp-stm32f4\adalib\libgnarl.a(s-tposen.o)
                0x08005d04                system__tasking__protected_objects__single_entry__protected_single_entry_call
 .text.system__tasking__protected_objects__single_entry__protected_single_entry_caller
                0x08005d88        0x8 C:\gnat\2017\arm-eabi\lib\gnat\ravenscar-sfp-stm32f4\adalib\libgnarl.a(s-tposen.o)
                0x08005d88                system__tasking__protected_objects__single_entry__protected_single_entry_caller
 .text.system__tasking__protected_objects__single_entry__service_entry
                0x08005d90       0x48 C:\gnat\2017\arm-eabi\lib\gnat\ravenscar-sfp-stm32f4\adalib\libgnarl.a(s-tposen.o)
                0x08005d90                system__tasking__protected_objects__single_entry__service_entry
 .text.system__tasking__protected_objects__single_entry__unlock_entry
                0x08005dd8        0x4 C:\gnat\2017\arm-eabi\lib\gnat\ravenscar-sfp-stm32f4\adalib\libgnarl.a(s-tposen.o)
                0x08005dd8                system__tasking__protected_objects__single_entry__unlock_entry
 .text          0x08005ddc        0x0 C:\gnat\2017\arm-eabi\lib\gnat\ravenscar-sfp-stm32f4\adalib\libgnarl.a(s-tpobmu.o)
 .text.system__tasking__protected_objects__multiprocessors__wakeup_served_entry
                0x08005ddc       0x58 C:\gnat\2017\arm-eabi\lib\gnat\ravenscar-sfp-stm32f4\adalib\libgnarl.a(s-tpobmu.o)
                0x08005ddc                system__tasking__protected_objects__multiprocessors__wakeup_served_entry
 .text.system__tasking__protected_objects__multiprocessors__entry_call_listIP
                0x08005e34        0xc C:\gnat\2017\arm-eabi\lib\gnat\ravenscar-sfp-stm32f4\adalib\libgnarl.a(s-tpobmu.o)
                0x08005e34                system__tasking__protected_objects__multiprocessors__entry_call_listIP
 .text.system__tasking__protected_objects__multiprocessors__served
                0x08005e40       0xdc C:\gnat\2017\arm-eabi\lib\gnat\ravenscar-sfp-stm32f4\adalib\libgnarl.a(s-tpobmu.o)
                0x08005e40                system__tasking__protected_objects__multiprocessors(short,...)(long double, void,...)(double)
 .text.system__tasking__protected_objects__multiprocessors___elabb
                0x08005f1c       0x20 C:\gnat\2017\arm-eabi\lib\gnat\ravenscar-sfp-stm32f4\adalib\libgnarl.a(s-tpobmu.o)
                0x08005f1c                system__tasking__protected_objects__multiprocessors___elabb
 .text          0x08005f3c        0x0 C:\gnat\2017\arm-eabi\lib\gnat\ravenscar-sfp-stm32f4\adalib\libgnarl.a(s-taskin.o)
 .text.system__tasking__E5sIP
                0x08005f3c        0x8 C:\gnat\2017\arm-eabi\lib\gnat\ravenscar-sfp-stm32f4\adalib\libgnarl.a(s-taskin.o)
                0x08005f3c                system__tasking__E5sIP
 .text.system__tasking__activation_chainIP
                0x08005f44        0x8 C:\gnat\2017\arm-eabi\lib\gnat\ravenscar-sfp-stm32f4\adalib\libgnarl.a(s-taskin.o)
                0x08005f44                system__tasking__activation_chainIP
 .text.__gnat_get_secondary_stack
                0x08005f4c       0x10 C:\gnat\2017\arm-eabi\lib\gnat\ravenscar-sfp-stm32f4\adalib\libgnarl.a(s-taskin.o)
                0x08005f4c                __gnat_get_secondary_stack
 .text.system__tasking__initialize_atcb
                0x08005f5c       0x38 C:\gnat\2017\arm-eabi\lib\gnat\ravenscar-sfp-stm32f4\adalib\libgnarl.a(s-taskin.o)
                0x08005f5c                system__tasking__initialize_atcb
 .text.system__tasking__initialize
                0x08005f94      0x130 C:\gnat\2017\arm-eabi\lib\gnat\ravenscar-sfp-stm32f4\adalib\libgnarl.a(s-taskin.o)
                0x08005f94                system__tasking__initialize
 .text.system__tasking__self
                0x080060c4        0xc C:\gnat\2017\arm-eabi\lib\gnat\ravenscar-sfp-stm32f4\adalib\libgnarl.a(s-taskin.o)
                0x080060c4                system__tasking(short,...)(long, float)
 .text.system__tasking__set_sec_stack
                0x080060d0       0x10 C:\gnat\2017\arm-eabi\lib\gnat\ravenscar-sfp-stm32f4\adalib\libgnarl.a(s-taskin.o)
                0x080060d0                system__tasking__set_sec_stack
 .text.system__tasking__storage_size
                0x080060e0        0x8 C:\gnat\2017\arm-eabi\lib\gnat\ravenscar-sfp-stm32f4\adalib\libgnarl.a(s-taskin.o)
                0x080060e0                system__tasking__storage_size
 .text          0x080060e8        0x0 C:\gnat\2017\arm-eabi\lib\gnat\ravenscar-sfp-stm32f4\adalib\libgnarl.a(s-tasdeb.o)
 .text.system__tasking__debug__add_task_id
                0x080060e8       0x3c C:\gnat\2017\arm-eabi\lib\gnat\ravenscar-sfp-stm32f4\adalib\libgnarl.a(s-tasdeb.o)
                0x080060e8                system__tasking__debug__add_task_id
 .text          0x08006124        0x0 C:\gnat\2017\arm-eabi\lib\gnat\ravenscar-sfp-stm32f4\adalib\libgnarl.a(s-tarest.o)
 .text.system__tasking__restricted__stages__task_wrapper
                0x08006124       0xd0 C:\gnat\2017\arm-eabi\lib\gnat\ravenscar-sfp-stm32f4\adalib\libgnarl.a(s-tarest.o)
 .text.system__tasking__restricted__stages__create_restricted_task__2
                0x080061f4       0x70 C:\gnat\2017\arm-eabi\lib\gnat\ravenscar-sfp-stm32f4\adalib\libgnarl.a(s-tarest.o)
 .text.system__tasking__restricted__stages__activate_tasks
                0x08006264       0x94 C:\gnat\2017\arm-eabi\lib\gnat\ravenscar-sfp-stm32f4\adalib\libgnarl.a(s-tarest.o)
 .text.__gnat_activate_all_tasks
                0x080062f8       0x14 C:\gnat\2017\arm-eabi\lib\gnat\ravenscar-sfp-stm32f4\adalib\libgnarl.a(s-tarest.o)
                0x080062f8                __gnat_activate_all_tasks
 .text.system__tasking__restricted__stages__activate_restricted_tasks
                0x0800630c       0x20 C:\gnat\2017\arm-eabi\lib\gnat\ravenscar-sfp-stm32f4\adalib\libgnarl.a(s-tarest.o)
                0x0800630c                system__tasking__restricted__stages__activate_restricted_tasks
 .text.system__tasking__restricted__stages__complete_restricted_activation
                0x0800632c        0x4 C:\gnat\2017\arm-eabi\lib\gnat\ravenscar-sfp-stm32f4\adalib\libgnarl.a(s-tarest.o)
                0x0800632c                system__tasking__restricted__stages__complete_restricted_activation
 .text.system__tasking__restricted__stages__complete_restricted_task
                0x08006330       0x10 C:\gnat\2017\arm-eabi\lib\gnat\ravenscar-sfp-stm32f4\adalib\libgnarl.a(s-tarest.o)
                0x08006330                system__tasking__restricted__stages__complete_restricted_task
 .text.system__tasking__restricted__stages__create_restricted_task
                0x08006340       0x5c C:\gnat\2017\arm-eabi\lib\gnat\ravenscar-sfp-stm32f4\adalib\libgnarl.a(s-tarest.o)
                0x08006340                system__tasking__restricted__stages__create_restricted_task
 .text.system__tasking__restricted__stages__create_restricted_task_sequential
                0x0800639c       0x30 C:\gnat\2017\arm-eabi\lib\gnat\ravenscar-sfp-stm32f4\adalib\libgnarl.a(s-tarest.o)
                0x0800639c                system__tasking__restricted__stages__create_restricted_task_sequential
 .text.system__tasking__restricted__stages__finalize_global_tasks
                0x080063cc       0x10 C:\gnat\2017\arm-eabi\lib\gnat\ravenscar-sfp-stm32f4\adalib\libgnarl.a(s-tarest.o)
                0x080063cc                system__tasking__restricted__stages__finalize_global_tasks
 .text.system__tasking__restricted__stages__restricted_terminated
                0x080063dc       0x10 C:\gnat\2017\arm-eabi\lib\gnat\ravenscar-sfp-stm32f4\adalib\libgnarl.a(s-tarest.o)
                0x080063dc                system__tasking__restricted__stages__restricted_terminated
 .text.system__tasking__restricted__stages___elabb
                0x080063ec        0x4 C:\gnat\2017\arm-eabi\lib\gnat\ravenscar-sfp-stm32f4\adalib\libgnarl.a(s-tarest.o)
                0x080063ec                system__tasking__restricted__stages___elabb
 .text          0x080063f0        0x0 C:\gnat\2017\arm-eabi\lib\gnat\ravenscar-sfp-stm32f4\adalib\libgnarl.a(s-taprop.o)
 .text.system__task_primitives__operations__Tidle_stacksBIP
                0x080063f0        0x4 C:\gnat\2017\arm-eabi\lib\gnat\ravenscar-sfp-stm32f4\adalib\libgnarl.a(s-taprop.o)
                0x080063f0                system__task_primitives__operations__Tidle_stacksBIP
 .text.system__task_primitives__operations__Tidle_stacks_tableBIP
                0x080063f4        0x4 C:\gnat\2017\arm-eabi\lib\gnat\ravenscar-sfp-stm32f4\adalib\libgnarl.a(s-taprop.o)
                0x080063f4                system__task_primitives__operations__Tidle_stacks_tableBIP
 .text.system__task_primitives__operations__Tidle_tasksBIP
                0x080063f8        0x4 C:\gnat\2017\arm-eabi\lib\gnat\ravenscar-sfp-stm32f4\adalib\libgnarl.a(s-taprop.o)
                0x080063f8                system__task_primitives__operations__Tidle_tasksBIP
 .text.system__task_primitives__operations__self
                0x080063fc        0xc C:\gnat\2017\arm-eabi\lib\gnat\ravenscar-sfp-stm32f4\adalib\libgnarl.a(s-taprop.o)
                0x080063fc                system__task_primitives__operations(short,...)(long, float)
 .text.system__task_primitives__operations__sleep
                0x08006408        0x4 C:\gnat\2017\arm-eabi\lib\gnat\ravenscar-sfp-stm32f4\adalib\libgnarl.a(s-taprop.o)
                0x08006408                system__task_primitives__operations(short, long,...)(...)( *)
 .text.system__task_primitives__operations__delay_until
                0x0800640c       0x1c C:\gnat\2017\arm-eabi\lib\gnat\ravenscar-sfp-stm32f4\adalib\libgnarl.a(s-taprop.o)
                0x0800640c                system__task_primitives__operations__delay_until
 .text.system__task_primitives__operations__monotonic_clock
                0x08006428       0x5c C:\gnat\2017\arm-eabi\lib\gnat\ravenscar-sfp-stm32f4\adalib\libgnarl.a(s-taprop.o)
                0x08006428                system__task_primitives__operations__monotonic_clock
 .text.system__task_primitives__operations__wakeup
                0x08006484        0x8 C:\gnat\2017\arm-eabi\lib\gnat\ravenscar-sfp-stm32f4\adalib\libgnarl.a(s-taprop.o)
                0x08006484                system__task_primitives__operations__wakeup
 .text.system__task_primitives__operations__set_priority
                0x0800648c       0x18 C:\gnat\2017\arm-eabi\lib\gnat\ravenscar-sfp-stm32f4\adalib\libgnarl.a(s-taprop.o)
                0x0800648c                system__task_primitives__operations__set_priority
 .text.system__task_primitives__operations__get_priority
                0x080064a4        0x8 C:\gnat\2017\arm-eabi\lib\gnat\ravenscar-sfp-stm32f4\adalib\libgnarl.a(s-taprop.o)
                0x080064a4                system__task_primitives__operations__get_priority
 .text.system__task_primitives__operations__get_affinity
                0x080064ac        0xc C:\gnat\2017\arm-eabi\lib\gnat\ravenscar-sfp-stm32f4\adalib\libgnarl.a(s-taprop.o)
                0x080064ac                system__task_primitives__operations__get_affinity
 .text.system__task_primitives__operations__get_cpu
                0x080064b8       0x10 C:\gnat\2017\arm-eabi\lib\gnat\ravenscar-sfp-stm32f4\adalib\libgnarl.a(s-taprop.o)
                0x080064b8                system__task_primitives__operations__get_cpu
 .text.system__task_primitives__operations__get_thread_id
                0x080064c8        0x8 C:\gnat\2017\arm-eabi\lib\gnat\ravenscar-sfp-stm32f4\adalib\libgnarl.a(s-taprop.o)
                0x080064c8                system__task_primitives__operations__get_thread_id
 .text.system__task_primitives__operations__enter_task
                0x080064d0       0x3c C:\gnat\2017\arm-eabi\lib\gnat\ravenscar-sfp-stm32f4\adalib\libgnarl.a(s-taprop.o)
                0x080064d0                system__task_primitives__operations__enter_task
 .text.system__task_primitives__operations__idle
                0x0800650c       0x14 C:\gnat\2017\arm-eabi\lib\gnat\ravenscar-sfp-stm32f4\adalib\libgnarl.a(s-taprop.o)
                0x0800650c                system__task_primitives__operations(int, double, long,...)
 .text.system__task_primitives__operations__initialize_tcb
                0x08006520        0x4 C:\gnat\2017\arm-eabi\lib\gnat\ravenscar-sfp-stm32f4\adalib\libgnarl.a(s-taprop.o)
                0x08006520                system__task_primitives__operations__initialize_tcb
 .text.system__task_primitives__operations__create_task
                0x08006524       0x38 C:\gnat\2017\arm-eabi\lib\gnat\ravenscar-sfp-stm32f4\adalib\libgnarl.a(s-taprop.o)
                0x08006524                system__task_primitives__operations__create_task
 .text.system__task_primitives__operations__initialize_idle
                0x0800655c       0x68 C:\gnat\2017\arm-eabi\lib\gnat\ravenscar-sfp-stm32f4\adalib\libgnarl.a(s-taprop.o)
                0x0800655c                system__task_primitives__operations__initialize_idle
 .text.__gnat_initialize_slave
                0x080065c4       0x38 C:\gnat\2017\arm-eabi\lib\gnat\ravenscar-sfp-stm32f4\adalib\libgnarl.a(s-taprop.o)
                0x080065c4                __gnat_initialize_slave
 .text.system__task_primitives__operations__initialize
                0x080065fc       0xb0 C:\gnat\2017\arm-eabi\lib\gnat\ravenscar-sfp-stm32f4\adalib\libgnarl.a(s-taprop.o)
                0x080065fc                system__task_primitives__operations__initialize
 .text.system__task_primitives__operations__is_task_context
                0x080066ac       0x14 C:\gnat\2017\arm-eabi\lib\gnat\ravenscar-sfp-stm32f4\adalib\libgnarl.a(s-taprop.o)
                0x080066ac                system__task_primitives__operations__is_task_context
 .text          0x080066c0        0x0 C:\gnat\2017\arm-eabi\lib\gnat\ravenscar-sfp-stm32f4\adalib\libgnarl.a(s-taprob.o)
 .text.system__tasking__protected_objects__entry_bodyIP
                0x080066c0        0x8 C:\gnat\2017\arm-eabi\lib\gnat\ravenscar-sfp-stm32f4\adalib\libgnarl.a(s-taprob.o)
                0x080066c0                system__tasking__protected_objects__entry_bodyIP
 .text.system__tasking__protected_objects__initialize_protection
                0x080066c8       0x14 C:\gnat\2017\arm-eabi\lib\gnat\ravenscar-sfp-stm32f4\adalib\libgnarl.a(s-taprob.o)
                0x080066c8                system__tasking__protected_objects__initialize_protection
 .text.system__tasking__protected_objects__lock
                0x080066dc       0x50 C:\gnat\2017\arm-eabi\lib\gnat\ravenscar-sfp-stm32f4\adalib\libgnarl.a(s-taprob.o)
                0x080066dc                system__tasking__protected_objects__lock
 .text.system__tasking__protected_objects__unlock
                0x0800672c       0x2c C:\gnat\2017\arm-eabi\lib\gnat\ravenscar-sfp-stm32f4\adalib\libgnarl.a(s-taprob.o)
                0x0800672c                system__tasking__protected_objects__unlock
 .text.system__tasking__protected_objects___elabb
                0x08006758        0x4 C:\gnat\2017\arm-eabi\lib\gnat\ravenscar-sfp-stm32f4\adalib\libgnarl.a(s-taprob.o)
                0x08006758                system__tasking__protected_objects___elabb
 .text          0x0800675c        0x0 C:\gnat\2017\arm-eabi\lib\gnat\ravenscar-sfp-stm32f4\adalib\libgnarl.a(s-parame.o)
 .text.system__parameters__adjust_storage_size
                0x0800675c        0xc C:\gnat\2017\arm-eabi\lib\gnat\ravenscar-sfp-stm32f4\adalib\libgnarl.a(s-parame.o)
                0x0800675c                system__parameters__adjust_storage_size
 .text          0x08006768        0x0 C:\gnat\2017\arm-eabi\lib\gnat\ravenscar-sfp-stm32f4\adalib\libgnarl.a(s-interr.o)
 .text.system__interrupts__default_handler
                0x08006768       0x44 C:\gnat\2017\arm-eabi\lib\gnat\ravenscar-sfp-stm32f4\adalib\libgnarl.a(s-interr.o)
 .text.system__interrupts__E3sIP
                0x080067ac        0x8 C:\gnat\2017\arm-eabi\lib\gnat\ravenscar-sfp-stm32f4\adalib\libgnarl.a(s-interr.o)
                0x080067ac                system__interrupts__E3sIP
 .text.system__interrupts__handler_itemIP
                0x080067b4        0x8 C:\gnat\2017\arm-eabi\lib\gnat\ravenscar-sfp-stm32f4\adalib\libgnarl.a(s-interr.o)
                0x080067b4                system__interrupts__handler_itemIP
 .text.system__interrupts__handler_arrayIP
                0x080067bc       0x28 C:\gnat\2017\arm-eabi\lib\gnat\ravenscar-sfp-stm32f4\adalib\libgnarl.a(s-interr.o)
                0x080067bc                system__interrupts__handler_arrayIP
 .text.system__interrupts__install_restricted_handlers
                0x080067e4       0x80 C:\gnat\2017\arm-eabi\lib\gnat\ravenscar-sfp-stm32f4\adalib\libgnarl.a(s-interr.o)
                0x080067e4                system__interrupts__install_restricted_handlers
 .text.__gnat_attach_all_handlers
                0x08006864       0x64 C:\gnat\2017\arm-eabi\lib\gnat\ravenscar-sfp-stm32f4\adalib\libgnarl.a(s-interr.o)
                0x08006864                __gnat_attach_all_handlers
 .text          0x080068c8        0x0 C:\gnat\2017\arm-eabi\lib\gnat\ravenscar-sfp-stm32f4\adalib\libgnarl.a(s-bcprmu.o)
 .text.__gnat_start_slave_cpus
                0x080068c8        0x4 C:\gnat\2017\arm-eabi\lib\gnat\ravenscar-sfp-stm32f4\adalib\libgnarl.a(s-bcprmu.o)
                0x080068c8                __gnat_start_slave_cpus
 .text.system__bb__cpu_primitives__multiprocessors__poke_handler
                0x080068cc       0x6c C:\gnat\2017\arm-eabi\lib\gnat\ravenscar-sfp-stm32f4\adalib\libgnarl.a(s-bcprmu.o)
                0x080068cc                system__bb__cpu_primitives__multiprocessors__poke_handler
 .text          0x08006938        0x0 C:\gnat\2017\arm-eabi\lib\gnat\ravenscar-sfp-stm32f4\adalib\libgnarl.a(s-bbtiev.o)
 .text.system__bb__timing_events___size
                0x08006938        0x8 C:\gnat\2017\arm-eabi\lib\gnat\ravenscar-sfp-stm32f4\adalib\libgnarl.a(s-bbtiev.o)
                0x08006938                system__bb__timing_events___size
 .text.system__bb__timing_events__current_handler
                0x08006940        0x4 C:\gnat\2017\arm-eabi\lib\gnat\ravenscar-sfp-stm32f4\adalib\libgnarl.a(s-bbtiev.o)
                0x08006940                system__bb__timing_events__current_handler
 .text.system__bb__timing_events__time_of_event
                0x08006944       0x10 C:\gnat\2017\arm-eabi\lib\gnat\ravenscar-sfp-stm32f4\adalib\libgnarl.a(s-bbtiev.o)
                0x08006944                system__bb__timing_events__time_of_event
 .text.system__bb__timing_events__set_handler
                0x08006954       0xa8 C:\gnat\2017\arm-eabi\lib\gnat\ravenscar-sfp-stm32f4\adalib\libgnarl.a(s-bbtiev.o)
                0x08006954                system__bb__timing_events__set_handler
 .text.system__bb__timing_events__cancel_handler
                0x080069fc       0x60 C:\gnat\2017\arm-eabi\lib\gnat\ravenscar-sfp-stm32f4\adalib\libgnarl.a(s-bbtiev.o)
                0x080069fc                system__bb__timing_events__cancel_handler
 .text.system__bb__timing_events__timing_eventIP
                0x08006a5c       0x1c C:\gnat\2017\arm-eabi\lib\gnat\ravenscar-sfp-stm32f4\adalib\libgnarl.a(s-bbtiev.o)
                0x08006a5c                system__bb__timing_events__timing_eventIP
 .text.system__bb__timing_events__execute_expired_timing_events
                0x08006a78       0x7c C:\gnat\2017\arm-eabi\lib\gnat\ravenscar-sfp-stm32f4\adalib\libgnarl.a(s-bbtiev.o)
                0x08006a78                system__bb__timing_events__execute_expired_timing_events
 .text.system__bb__timing_events__get_next_timeout
                0x08006af4       0x24 C:\gnat\2017\arm-eabi\lib\gnat\ravenscar-sfp-stm32f4\adalib\libgnarl.a(s-bbtiev.o)
                0x08006af4                system__bb__timing_events__get_next_timeout
 .text          0x08006b18        0x0 C:\gnat\2017\arm-eabi\lib\gnat\ravenscar-sfp-stm32f4\adalib\libgnarl.a(s-bbthre.o)
 .text.system__bb__threads__thread_descriptorIP
                0x08006b18        0xc C:\gnat\2017\arm-eabi\lib\gnat\ravenscar-sfp-stm32f4\adalib\libgnarl.a(s-bbthre.o)
                0x08006b18                system__bb__threads__thread_descriptorIP
 .text.system__bb__threads__get_affinity
                0x08006b24        0x8 C:\gnat\2017\arm-eabi\lib\gnat\ravenscar-sfp-stm32f4\adalib\libgnarl.a(s-bbthre.o)
                0x08006b24                system__bb__threads__get_affinity
 .text.system__bb__threads__get_cpu
                0x08006b2c        0xc C:\gnat\2017\arm-eabi\lib\gnat\ravenscar-sfp-stm32f4\adalib\libgnarl.a(s-bbthre.o)
                0x08006b2c                system__bb__threads__get_cpu
 .text.system__bb__threads__get_atcb
                0x08006b38        0xc C:\gnat\2017\arm-eabi\lib\gnat\ravenscar-sfp-stm32f4\adalib\libgnarl.a(s-bbthre.o)
                0x08006b38                system__bb__threads__get_atcb
 .text.system__bb__threads__get_priority
                0x08006b44        0x4 C:\gnat\2017\arm-eabi\lib\gnat\ravenscar-sfp-stm32f4\adalib\libgnarl.a(s-bbthre.o)
                0x08006b44                system__bb__threads__get_priority
 .text.system__bb__threads__initialize
                0x08006b48      0x148 C:\gnat\2017\arm-eabi\lib\gnat\ravenscar-sfp-stm32f4\adalib\libgnarl.a(s-bbthre.o)
                0x08006b48                system__bb__threads__initialize
 .text.system__bb__threads__initialize_slave
                0x08006c90       0xa0 C:\gnat\2017\arm-eabi\lib\gnat\ravenscar-sfp-stm32f4\adalib\libgnarl.a(s-bbthre.o)
                0x08006c90                system__bb__threads__initialize_slave
 .text.system__bb__threads__set_atcb
                0x08006d30        0x4 C:\gnat\2017\arm-eabi\lib\gnat\ravenscar-sfp-stm32f4\adalib\libgnarl.a(s-bbthre.o)
                0x08006d30                system__bb__threads__set_atcb
 .text.system__bb__threads__set_priority
                0x08006d34       0x1c C:\gnat\2017\arm-eabi\lib\gnat\ravenscar-sfp-stm32f4\adalib\libgnarl.a(s-bbthre.o)
                0x08006d34                system__bb__threads__set_priority
 .text.system__bb__threads__sleep
                0x08006d50       0x48 C:\gnat\2017\arm-eabi\lib\gnat\ravenscar-sfp-stm32f4\adalib\libgnarl.a(s-bbthre.o)
                0x08006d50                system__bb__threads(short, long,...)(...)( *)
 .text.system__bb__threads__thread_create
                0x08006d98      0x104 C:\gnat\2017\arm-eabi\lib\gnat\ravenscar-sfp-stm32f4\adalib\libgnarl.a(s-bbthre.o)
                0x08006d98                system__bb__threads__thread_create
 .text.system__bb__threads__thread_self
                0x08006e9c        0xc C:\gnat\2017\arm-eabi\lib\gnat\ravenscar-sfp-stm32f4\adalib\libgnarl.a(s-bbthre.o)
                0x08006e9c                system__bb__threads__thread_self
 .text.system__bb__threads__wakeup
                0x08006ea8       0x94 C:\gnat\2017\arm-eabi\lib\gnat\ravenscar-sfp-stm32f4\adalib\libgnarl.a(s-bbthre.o)
                0x08006ea8                system__bb__threads__wakeup
 .text          0x08006f3c        0x0 C:\gnat\2017\arm-eabi\lib\gnat\ravenscar-sfp-stm32f4\adalib\libgnarl.a(s-bbthqu.o)
 .text.system__bb__threads__queues__change_priority
                0x08006f3c       0x6c C:\gnat\2017\arm-eabi\lib\gnat\ravenscar-sfp-stm32f4\adalib\libgnarl.a(s-bbthqu.o)
                0x08006f3c                system__bb__threads__queues__change_priority
 .text.__gnat_context_switch_needed
                0x08006fa8       0x18 C:\gnat\2017\arm-eabi\lib\gnat\ravenscar-sfp-stm32f4\adalib\libgnarl.a(s-bbthqu.o)
                0x08006fa8                __gnat_context_switch_needed
 .text.system__bb__threads__queues__current_priority
                0x08006fc0       0x20 C:\gnat\2017\arm-eabi\lib\gnat\ravenscar-sfp-stm32f4\adalib\libgnarl.a(s-bbthqu.o)
                0x08006fc0                system__bb__threads__queues__current_priority
 .text.system__bb__threads__queues__extract
                0x08006fe0       0x28 C:\gnat\2017\arm-eabi\lib\gnat\ravenscar-sfp-stm32f4\adalib\libgnarl.a(s-bbthqu.o)
                0x08006fe0                system__bb__threads__queues__extract
 .text.system__bb__threads__queues__extract_first_alarm
                0x08007008       0x24 C:\gnat\2017\arm-eabi\lib\gnat\ravenscar-sfp-stm32f4\adalib\libgnarl.a(s-bbthqu.o)
                0x08007008                system__bb__threads__queues__extract_first_alarm
 .text.system__bb__threads__queues__first_thread
                0x0800702c        0xc C:\gnat\2017\arm-eabi\lib\gnat\ravenscar-sfp-stm32f4\adalib\libgnarl.a(s-bbthqu.o)
                0x0800702c                system__bb__threads__queues__first_thread
 .text.system__bb__threads__queues__get_next_alarm_time
                0x08007038       0x24 C:\gnat\2017\arm-eabi\lib\gnat\ravenscar-sfp-stm32f4\adalib\libgnarl.a(s-bbthqu.o)
                0x08007038                system__bb__threads__queues__get_next_alarm_time
 .text.system__bb__threads__queues__insert
                0x0800705c       0x88 C:\gnat\2017\arm-eabi\lib\gnat\ravenscar-sfp-stm32f4\adalib\libgnarl.a(s-bbthqu.o)
                0x0800705c                system__bb__threads__queues__insert
 .text.system__bb__threads__queues__insert_alarm
                0x080070e4       0x64 C:\gnat\2017\arm-eabi\lib\gnat\ravenscar-sfp-stm32f4\adalib\libgnarl.a(s-bbthqu.o)
                0x080070e4                system__bb__threads__queues__insert_alarm
 .text.system__bb__threads__queues__running_thread
                0x08007148        0xc C:\gnat\2017\arm-eabi\lib\gnat\ravenscar-sfp-stm32f4\adalib\libgnarl.a(s-bbthqu.o)
                0x08007148                system__bb__threads__queues__running_thread
 .text.system__bb__threads__queues__wakeup_expired_alarms
                0x08007154       0xe8 C:\gnat\2017\arm-eabi\lib\gnat\ravenscar-sfp-stm32f4\adalib\libgnarl.a(s-bbthqu.o)
                0x08007154                system__bb__threads__queues__wakeup_expired_alarms
 .text.system__bb__threads__queues__yield
                0x0800723c       0x4c C:\gnat\2017\arm-eabi\lib\gnat\ravenscar-sfp-stm32f4\adalib\libgnarl.a(s-bbthqu.o)
                0x0800723c                system__bb__threads__queues__yield
 .text          0x08007288        0x0 C:\gnat\2017\arm-eabi\lib\gnat\ravenscar-sfp-stm32f4\adalib\libgnarl.a(s-bbprot.o)
 .text.system__bb__protection__enter_kernel
                0x08007288        0x4 C:\gnat\2017\arm-eabi\lib\gnat\ravenscar-sfp-stm32f4\adalib\libgnarl.a(s-bbprot.o)
                0x08007288                system__bb__protection__enter_kernel
 .text.system__bb__protection__leave_kernel
                0x0800728c       0x54 C:\gnat\2017\arm-eabi\lib\gnat\ravenscar-sfp-stm32f4\adalib\libgnarl.a(s-bbprot.o)
                0x0800728c                system__bb__protection__leave_kernel
 .text          0x080072e0        0x0 C:\gnat\2017\arm-eabi\lib\gnat\ravenscar-sfp-stm32f4\adalib\libgnarl.a(a-sytaco.o)
 .text.ada__synchronous_task_control__suspension_object__wait_B2s
                0x080072e0        0x4 C:\gnat\2017\arm-eabi\lib\gnat\ravenscar-sfp-stm32f4\adalib\libgnarl.a(a-sytaco.o)
                0x080072e0                ada__synchronous_task_control__suspension_object__wait_B2s
 .text.ada__synchronous_task_control__suspension_object__wait_E1s
                0x080072e4        0x8 C:\gnat\2017\arm-eabi\lib\gnat\ravenscar-sfp-stm32f4\adalib\libgnarl.a(a-sytaco.o)
                0x080072e4                ada__synchronous_task_control__suspension_object__wait_E1s
 .text.ada__synchronous_task_control__suspension_objectVIP
                0x080072ec       0x14 C:\gnat\2017\arm-eabi\lib\gnat\ravenscar-sfp-stm32f4\adalib\libgnarl.a(a-sytaco.o)
                0x080072ec                ada__synchronous_task_control__suspension_objectVIP
 .text.ada__synchronous_task_control__suspension_object__get_openN
                0x08007300        0x4 C:\gnat\2017\arm-eabi\lib\gnat\ravenscar-sfp-stm32f4\adalib\libgnarl.a(a-sytaco.o)
                0x08007300                ada__synchronous_task_control__suspension_object__get_openN
 .text.ada__synchronous_task_control__suspension_object__set_falseN
                0x08007304        0x8 C:\gnat\2017\arm-eabi\lib\gnat\ravenscar-sfp-stm32f4\adalib\libgnarl.a(a-sytaco.o)
                0x08007304                ada__synchronous_task_control__suspension_object__set_falseN
 .text.ada__synchronous_task_control__suspension_object__set_trueN
                0x0800730c        0x8 C:\gnat\2017\arm-eabi\lib\gnat\ravenscar-sfp-stm32f4\adalib\libgnarl.a(a-sytaco.o)
                0x0800730c                ada__synchronous_task_control__suspension_object__set_trueN
 .text.ada__synchronous_task_control__current_state
                0x08007314       0x18 C:\gnat\2017\arm-eabi\lib\gnat\ravenscar-sfp-stm32f4\adalib\libgnarl.a(a-sytaco.o)
                0x08007314                ada__synchronous_task_control__current_state
 .text.ada__synchronous_task_control__suspension_object__get_openP
                0x0800732c        0x4 C:\gnat\2017\arm-eabi\lib\gnat\ravenscar-sfp-stm32f4\adalib\libgnarl.a(a-sytaco.o)
                0x0800732c                ada__synchronous_task_control__suspension_object__get_openP
 .text.ada__synchronous_task_control__set_false
                0x08007330       0x1c C:\gnat\2017\arm-eabi\lib\gnat\ravenscar-sfp-stm32f4\adalib\libgnarl.a(a-sytaco.o)
                0x08007330                ada__synchronous_task_control__set_false
 .text.ada__synchronous_task_control__suspension_object__set_falseP
                0x0800734c        0x4 C:\gnat\2017\arm-eabi\lib\gnat\ravenscar-sfp-stm32f4\adalib\libgnarl.a(a-sytaco.o)
                0x0800734c                ada__synchronous_task_control__suspension_object__set_falseP
 .text.ada__synchronous_task_control__set_true
                0x08007350       0x1c C:\gnat\2017\arm-eabi\lib\gnat\ravenscar-sfp-stm32f4\adalib\libgnarl.a(a-sytaco.o)
                0x08007350                ada__synchronous_task_control__set_true
 .text.ada__synchronous_task_control__suspension_object__set_trueP
                0x0800736c        0x4 C:\gnat\2017\arm-eabi\lib\gnat\ravenscar-sfp-stm32f4\adalib\libgnarl.a(a-sytaco.o)
                0x0800736c                ada__synchronous_task_control__suspension_object__set_trueP
 .text.ada__synchronous_task_control__suspend_until_true
                0x08007370        0x8 C:\gnat\2017\arm-eabi\lib\gnat\ravenscar-sfp-stm32f4\adalib\libgnarl.a(a-sytaco.o)
                0x08007370                ada__synchronous_task_control__suspend_until_true
 .text          0x08007378        0x0 C:\gnat\2017\arm-eabi\lib\gnat\ravenscar-sfp-stm32f4\adalib\libgnarl.a(a-retide.o)
 .text.ada__real_time__delays__delay_until
                0x08007378       0x30 C:\gnat\2017\arm-eabi\lib\gnat\ravenscar-sfp-stm32f4\adalib\libgnarl.a(a-retide.o)
                0x08007378                ada__real_time__delays__delay_until
 .text.ada__real_time__delays__to_duration
                0x080073a8        0x8 C:\gnat\2017\arm-eabi\lib\gnat\ravenscar-sfp-stm32f4\adalib\libgnarl.a(a-retide.o)
                0x080073a8                ada__real_time__delays__to_duration
 .text          0x080073b0        0x0 C:\gnat\2017\arm-eabi\lib\gnat\ravenscar-sfp-stm32f4\adalib\libgnarl.a(a-reatim.o)
 .text.ada__real_time__mul_div
                0x080073b0      0x128 C:\gnat\2017\arm-eabi\lib\gnat\ravenscar-sfp-stm32f4\adalib\libgnarl.a(a-reatim.o)
 .text.ada__real_time__Omultiply
                0x080074d8       0xb8 C:\gnat\2017\arm-eabi\lib\gnat\ravenscar-sfp-stm32f4\adalib\libgnarl.a(a-reatim.o)
                0x080074d8                ada__real_time__Omultiply
 .text.ada__real_time__Omultiply__2
                0x08007590       0x10 C:\gnat\2017\arm-eabi\lib\gnat\ravenscar-sfp-stm32f4\adalib\libgnarl.a(a-reatim.o)
                0x08007590                ada__real_time__Omultiply__2
 .text.ada__real_time__Oadd
                0x080075a0       0x6c C:\gnat\2017\arm-eabi\lib\gnat\ravenscar-sfp-stm32f4\adalib\libgnarl.a(a-reatim.o)
                0x080075a0                ada__real_time__Oadd
 .text.ada__real_time__Oadd__2
                0x0800760c       0x14 C:\gnat\2017\arm-eabi\lib\gnat\ravenscar-sfp-stm32f4\adalib\libgnarl.a(a-reatim.o)
                0x0800760c                ada__real_time__Oadd__2
 .text.ada__real_time__Oadd__3
                0x08007620       0x30 C:\gnat\2017\arm-eabi\lib\gnat\ravenscar-sfp-stm32f4\adalib\libgnarl.a(a-reatim.o)
                0x08007620                ada__real_time__Oadd__3
 .text.ada__real_time__Osubtract
                0x08007650       0x70 C:\gnat\2017\arm-eabi\lib\gnat\ravenscar-sfp-stm32f4\adalib\libgnarl.a(a-reatim.o)
                0x08007650                ada__real_time__Osubtract
 .text.ada__real_time__Osubtract__2
                0x080076c0       0x40 C:\gnat\2017\arm-eabi\lib\gnat\ravenscar-sfp-stm32f4\adalib\libgnarl.a(a-reatim.o)
                0x080076c0                ada__real_time__Osubtract__2
 .text.ada__real_time__Osubtract__3
                0x08007700       0x30 C:\gnat\2017\arm-eabi\lib\gnat\ravenscar-sfp-stm32f4\adalib\libgnarl.a(a-reatim.o)
                0x08007700                ada__real_time__Osubtract__3
 .text.ada__real_time__Osubtract__4
                0x08007730       0x24 C:\gnat\2017\arm-eabi\lib\gnat\ravenscar-sfp-stm32f4\adalib\libgnarl.a(a-reatim.o)
                0x08007730                ada__real_time__Osubtract__4
 .text.ada__real_time__Odivide
                0x08007754       0x44 C:\gnat\2017\arm-eabi\lib\gnat\ravenscar-sfp-stm32f4\adalib\libgnarl.a(a-reatim.o)
                0x08007754                ada__real_time__Odivide
 .text.ada__real_time__Odivide__2
                0x08007798       0x28 C:\gnat\2017\arm-eabi\lib\gnat\ravenscar-sfp-stm32f4\adalib\libgnarl.a(a-reatim.o)
                0x08007798                ada__real_time__Odivide__2
 .text.ada__real_time__clock
                0x080077c0       0x5c C:\gnat\2017\arm-eabi\lib\gnat\ravenscar-sfp-stm32f4\adalib\libgnarl.a(a-reatim.o)
                0x080077c0                ada__real_time__clock
 .text.ada__real_time__microseconds
                0x0800781c       0x38 C:\gnat\2017\arm-eabi\lib\gnat\ravenscar-sfp-stm32f4\adalib\libgnarl.a(a-reatim.o)
                0x0800781c                ada__real_time__microseconds
 .text.ada__real_time__milliseconds
                0x08007854       0x3c C:\gnat\2017\arm-eabi\lib\gnat\ravenscar-sfp-stm32f4\adalib\libgnarl.a(a-reatim.o)
                0x08007854                ada__real_time__milliseconds
 .text.ada__real_time__minutes
                0x08007890       0x50 C:\gnat\2017\arm-eabi\lib\gnat\ravenscar-sfp-stm32f4\adalib\libgnarl.a(a-reatim.o)
                0x08007890                ada__real_time__minutes
 .text.ada__real_time__nanoseconds
                0x080078e0       0x5c C:\gnat\2017\arm-eabi\lib\gnat\ravenscar-sfp-stm32f4\adalib\libgnarl.a(a-reatim.o)
                0x080078e0                ada__real_time__nanoseconds
 .text.ada__real_time__rounded_div
                0x0800793c       0x3c C:\gnat\2017\arm-eabi\lib\gnat\ravenscar-sfp-stm32f4\adalib\libgnarl.a(a-reatim.o)
                0x0800793c                ada__real_time__rounded_div
 .text.ada__real_time__seconds
                0x08007978        0xc C:\gnat\2017\arm-eabi\lib\gnat\ravenscar-sfp-stm32f4\adalib\libgnarl.a(a-reatim.o)
                0x08007978                ada__real_time__seconds
 *fill*         0x08007984        0x4 
 .text.ada__real_time__split
                0x08007988       0x4c C:\gnat\2017\arm-eabi\lib\gnat\ravenscar-sfp-stm32f4\adalib\libgnarl.a(a-reatim.o)
                0x08007988                ada__real_time__split
 *fill*         0x080079d4        0x4 
 .text.ada__real_time__time_of
                0x080079d8      0x110 C:\gnat\2017\arm-eabi\lib\gnat\ravenscar-sfp-stm32f4\adalib\libgnarl.a(a-reatim.o)
                0x080079d8                ada__real_time__time_of
 .text.ada__real_time__to_duration
                0x08007ae8       0x10 C:\gnat\2017\arm-eabi\lib\gnat\ravenscar-sfp-stm32f4\adalib\libgnarl.a(a-reatim.o)
                0x08007ae8                ada__real_time__to_duration
 .text.ada__real_time__to_time_span
                0x08007af8       0x10 C:\gnat\2017\arm-eabi\lib\gnat\ravenscar-sfp-stm32f4\adalib\libgnarl.a(a-reatim.o)
                0x08007af8                ada__real_time__to_time_span
 .text.ada__real_time___elabb
                0x08007b08        0x4 C:\gnat\2017\arm-eabi\lib\gnat\ravenscar-sfp-stm32f4\adalib\libgnarl.a(a-reatim.o)
                0x08007b08                ada__real_time___elabb
 *fill*         0x08007b0c       0xf4 
 .text          0x08007c00      0x194 C:\gnat\2017\arm-eabi\lib\gnat\ravenscar-sfp-stm32f4\adalib\libgnarl.a(handler.o)
                0x08007c00                __vectors
 .text          0x08007d94        0x0 C:\gnat\2017\arm-eabi\lib\gnat\ravenscar-sfp-stm32f4\adalib\libgnarl.a(s-bbinte.o)
 .text.system__bb__interrupts__Tinterrupt_stacksBIP
                0x08007d94        0x4 C:\gnat\2017\arm-eabi\lib\gnat\ravenscar-sfp-stm32f4\adalib\libgnarl.a(s-bbinte.o)
                0x08007d94                system__bb__interrupts__Tinterrupt_stacksBIP
 .text.system__bb__interrupts__Tinterrupt_stack_tableBIP
                0x08007d98        0x4 C:\gnat\2017\arm-eabi\lib\gnat\ravenscar-sfp-stm32f4\adalib\libgnarl.a(s-bbinte.o)
                0x08007d98                system__bb__interrupts__Tinterrupt_stack_tableBIP
 .text.system__bb__interrupts__attach_handler
                0x08007d9c       0x1c C:\gnat\2017\arm-eabi\lib\gnat\ravenscar-sfp-stm32f4\adalib\libgnarl.a(s-bbinte.o)
                0x08007d9c                system__bb__interrupts__attach_handler
 .text.system__bb__interrupts__current_interrupt
                0x08007db8       0x1c C:\gnat\2017\arm-eabi\lib\gnat\ravenscar-sfp-stm32f4\adalib\libgnarl.a(s-bbinte.o)
                0x08007db8                system__bb__interrupts__current_interrupt
 .text.system__bb__interrupts__interrupt_wrapper
                0x08007dd4       0xf8 C:\gnat\2017\arm-eabi\lib\gnat\ravenscar-sfp-stm32f4\adalib\libgnarl.a(s-bbinte.o)
                0x08007dd4                system__bb__interrupts__interrupt_wrapper
 .text.system__bb__interrupts__within_interrupt_stack
                0x08007ecc       0x40 C:\gnat\2017\arm-eabi\lib\gnat\ravenscar-sfp-stm32f4\adalib\libgnarl.a(s-bbinte.o)
                0x08007ecc                system__bb__interrupts__within_interrupt_stack
 .text.system__bb__interrupts__initialize_interrupts
                0x08007f0c       0x10 C:\gnat\2017\arm-eabi\lib\gnat\ravenscar-sfp-stm32f4\adalib\libgnarl.a(s-bbinte.o)
                0x08007f0c                system__bb__interrupts__initialize_interrupts
 .text          0x08007f1c        0x0 C:\gnat\2017\arm-eabi\lib\gnat\ravenscar-sfp-stm32f4\adalib\libgnarl.a(s-bbbosu.o)
 .text.system__bb__board_support__timer_interrupt_handler
                0x08007f1c        0x8 C:\gnat\2017\arm-eabi\lib\gnat\ravenscar-sfp-stm32f4\adalib\libgnarl.a(s-bbbosu.o)
                0x08007f1c                system__bb__board_support__timer_interrupt_handler
 .text.system__bb__board_support__interrupt_handler
                0x08007f24        0xc C:\gnat\2017\arm-eabi\lib\gnat\ravenscar-sfp-stm32f4\adalib\libgnarl.a(s-bbbosu.o)
                0x08007f24                system__bb__board_support__interrupt_handler
 .text.system__bb__board_support__enable_interrupt_request.part.0
                0x08007f30       0x1c C:\gnat\2017\arm-eabi\lib\gnat\ravenscar-sfp-stm32f4\adalib\libgnarl.a(s-bbbosu.o)
 .text.system__bb__board_support__time__max_timer_interval
                0x08007f4c        0x8 C:\gnat\2017\arm-eabi\lib\gnat\ravenscar-sfp-stm32f4\adalib\libgnarl.a(s-bbbosu.o)
                0x08007f4c                system__bb__board_support__time__max_timer_interval
 .text.system__bb__board_support__time__read_clock
                0x08007f54       0x40 C:\gnat\2017\arm-eabi\lib\gnat\ravenscar-sfp-stm32f4\adalib\libgnarl.a(s-bbbosu.o)
                0x08007f54                system__bb__board_support__time__read_clock
 .text.system__bb__board_support__time__clear_alarm_interrupt
                0x08007f94       0x10 C:\gnat\2017\arm-eabi\lib\gnat\ravenscar-sfp-stm32f4\adalib\libgnarl.a(s-bbbosu.o)
                0x08007f94                system__bb__board_support__time__clear_alarm_interrupt
 .text.system__bb__board_support__time__set_alarm
                0x08007fa4       0x60 C:\gnat\2017\arm-eabi\lib\gnat\ravenscar-sfp-stm32f4\adalib\libgnarl.a(s-bbbosu.o)
                0x08007fa4                system__bb__board_support__time__set_alarm
 .text.system__bb__board_support__time__install_alarm_handler
                0x08008004        0xc C:\gnat\2017\arm-eabi\lib\gnat\ravenscar-sfp-stm32f4\adalib\libgnarl.a(s-bbbosu.o)
                0x08008004                system__bb__board_support__time__install_alarm_handler
 .text.system__bb__board_support__multiprocessors__number_of_cpus
                0x08008010        0x4 C:\gnat\2017\arm-eabi\lib\gnat\ravenscar-sfp-stm32f4\adalib\libgnarl.a(s-bbbosu.o)
                0x08008010                system__bb__board_support__multiprocessors__number_of_cpus
 .text.system__bb__board_support__multiprocessors__current_cpu
                0x08008014        0x4 C:\gnat\2017\arm-eabi\lib\gnat\ravenscar-sfp-stm32f4\adalib\libgnarl.a(s-bbbosu.o)
                0x08008014                system__bb__board_support__multiprocessors__current_cpu
 .text.system__bb__board_support__multiprocessors__poke_cpu
                0x08008018        0x4 C:\gnat\2017\arm-eabi\lib\gnat\ravenscar-sfp-stm32f4\adalib\libgnarl.a(s-bbbosu.o)
                0x08008018                system__bb__board_support__multiprocessors__poke_cpu
 .text.system__bb__board_support__multiprocessors__start_all_cpus
                0x0800801c        0x4 C:\gnat\2017\arm-eabi\lib\gnat\ravenscar-sfp-stm32f4\adalib\libgnarl.a(s-bbbosu.o)
                0x0800801c                system__bb__board_support__multiprocessors__start_all_cpus
 .text.system__bb__board_support__interrupts__install_interrupt_handler
                0x08008020       0x54 C:\gnat\2017\arm-eabi\lib\gnat\ravenscar-sfp-stm32f4\adalib\libgnarl.a(s-bbbosu.o)
                0x08008020                system__bb__board_support__interrupts__install_interrupt_handler
 .text.system__bb__board_support__interrupts__priority_of_interrupt
                0x08008074       0x20 C:\gnat\2017\arm-eabi\lib\gnat\ravenscar-sfp-stm32f4\adalib\libgnarl.a(s-bbbosu.o)
                0x08008074                system__bb__board_support__interrupts__priority_of_interrupt
 .text.system__bb__board_support__interrupts__power_down
                0x08008094        0x4 C:\gnat\2017\arm-eabi\lib\gnat\ravenscar-sfp-stm32f4\adalib\libgnarl.a(s-bbbosu.o)
                0x08008094                system__bb__board_support__interrupts__power_down
 .text.system__bb__board_support__interrupts__set_current_priority
                0x08008098       0x18 C:\gnat\2017\arm-eabi\lib\gnat\ravenscar-sfp-stm32f4\adalib\libgnarl.a(s-bbbosu.o)
                0x08008098                system__bb__board_support__interrupts__set_current_priority
 .text.system__bb__board_support__sys_tick_registersIP
                0x080080b0        0x4 C:\gnat\2017\arm-eabi\lib\gnat\ravenscar-sfp-stm32f4\adalib\libgnarl.a(s-bbbosu.o)
                0x080080b0                system__bb__board_support__sys_tick_registersIP
 .text.system__bb__board_support__TipBIP
                0x080080b4        0x4 C:\gnat\2017\arm-eabi\lib\gnat\ravenscar-sfp-stm32f4\adalib\libgnarl.a(s-bbbosu.o)
                0x080080b4                system__bb__board_support__TipBIP
 .text.system__bb__board_support__initialize_board
                0x080080b8       0x9c C:\gnat\2017\arm-eabi\lib\gnat\ravenscar-sfp-stm32f4\adalib\libgnarl.a(s-bbbosu.o)
                0x080080b8                system__bb__board_support__initialize_board
 .text.system__bb__board_support__enable_interrupt_request
                0x08008154       0x30 C:\gnat\2017\arm-eabi\lib\gnat\ravenscar-sfp-stm32f4\adalib\libgnarl.a(s-bbbosu.o)
                0x08008154                system__bb__board_support__enable_interrupt_request
 .text.system__bb__board_support__to_pri
                0x08008184       0x14 C:\gnat\2017\arm-eabi\lib\gnat\ravenscar-sfp-stm32f4\adalib\libgnarl.a(s-bbbosu.o)
                0x08008184                system__bb__board_support__to_pri
 .text.system__bb__board_support__to_priority
                0x08008198       0x10 C:\gnat\2017\arm-eabi\lib\gnat\ravenscar-sfp-stm32f4\adalib\libgnarl.a(s-bbbosu.o)
                0x08008198                system__bb__board_support__to_priority
 .text          0x080081a8        0x0 C:\gnat\2017\arm-eabi\lib\gnat\ravenscar-sfp-stm32f4\adalib\libgnarl.a(s-bbtime.o)
 .text.system__bb__time__composite_execution_timeIP
                0x080081a8        0x4 C:\gnat\2017\arm-eabi\lib\gnat\ravenscar-sfp-stm32f4\adalib\libgnarl.a(s-bbtime.o)
                0x080081a8                system__bb__time__composite_execution_timeIP
 .text.system__bb__time__composite_timeIP
                0x080081ac        0xc C:\gnat\2017\arm-eabi\lib\gnat\ravenscar-sfp-stm32f4\adalib\libgnarl.a(s-bbtime.o)
                0x080081ac                system__bb__time__composite_timeIP
 .text.system__bb__time__clock
                0x080081b8       0x54 C:\gnat\2017\arm-eabi\lib\gnat\ravenscar-sfp-stm32f4\adalib\libgnarl.a(s-bbtime.o)
                0x080081b8                system__bb__time__clock
 .text.system__bb__time__epoch
                0x0800820c        0x8 C:\gnat\2017\arm-eabi\lib\gnat\ravenscar-sfp-stm32f4\adalib\libgnarl.a(s-bbtime.o)
                0x0800820c                system__bb__time__epoch
 .text.system__bb__time__get_next_timeout
                0x08008214       0x58 C:\gnat\2017\arm-eabi\lib\gnat\ravenscar-sfp-stm32f4\adalib\libgnarl.a(s-bbtime.o)
                0x08008214                system__bb__time__get_next_timeout
 .text.system__bb__time__initialize_timers
                0x0800826c       0x8c C:\gnat\2017\arm-eabi\lib\gnat\ravenscar-sfp-stm32f4\adalib\libgnarl.a(s-bbtime.o)
                0x0800826c                system__bb__time__initialize_timers
 .text.system__bb__time__update_alarm
                0x080082f8       0x98 C:\gnat\2017\arm-eabi\lib\gnat\ravenscar-sfp-stm32f4\adalib\libgnarl.a(s-bbtime.o)
                0x080082f8                system__bb__time__update_alarm
 .text.system__bb__time__delay_until
                0x08008390       0xec C:\gnat\2017\arm-eabi\lib\gnat\ravenscar-sfp-stm32f4\adalib\libgnarl.a(s-bbtime.o)
                0x08008390                system__bb__time__delay_until
 .text.system__bb__time__alarm_handler
                0x0800847c       0xcc C:\gnat\2017\arm-eabi\lib\gnat\ravenscar-sfp-stm32f4\adalib\libgnarl.a(s-bbtime.o)
 .text.system__bb__time__Oconcat
                0x08008548       0x18 C:\gnat\2017\arm-eabi\lib\gnat\ravenscar-sfp-stm32f4\adalib\libgnarl.a(s-bbtime.o)
                0x08008548                system__bb__time__Oconcat
 .text          0x08008560        0x0 C:\gnat\2017\arm-eabi\lib\gnat\ravenscar-sfp-stm32f4\adalib\libgnarl.a(s-bbcppr.o)
 .text.system__bb__cpu_primitives__gnat_error_handler
                0x08008560       0x50 C:\gnat\2017\arm-eabi\lib\gnat\ravenscar-sfp-stm32f4\adalib\libgnarl.a(s-bbcppr.o)
                0x08008560                system__bb__cpu_primitives__gnat_error_handler
 .text.system__bb__cpu_primitives__Tcontext_bufferBIP
                0x080085b0        0x4 C:\gnat\2017\arm-eabi\lib\gnat\ravenscar-sfp-stm32f4\adalib\libgnarl.a(s-bbcppr.o)
                0x080085b0                system__bb__cpu_primitives__Tcontext_bufferBIP
 .text.system__bb__cpu_primitives__hardware_contextIP
                0x080085b4        0x4 C:\gnat\2017\arm-eabi\lib\gnat\ravenscar-sfp-stm32f4\adalib\libgnarl.a(s-bbcppr.o)
                0x080085b4                system__bb__cpu_primitives__hardware_contextIP
 .text.primask  0x080085b8        0x8 C:\gnat\2017\arm-eabi\lib\gnat\ravenscar-sfp-stm32f4\adalib\libgnarl.a(s-bbcppr.o)
                0x080085b8                primask
 .text.system__bb__cpu_primitives__initialize_cpu
                0x080085c0       0x84 C:\gnat\2017\arm-eabi\lib\gnat\ravenscar-sfp-stm32f4\adalib\libgnarl.a(s-bbcppr.o)
                0x080085c0                system__bb__cpu_primitives__initialize_cpu
 .text.system__bb__cpu_primitives__context_switch
                0x08008644       0x10 C:\gnat\2017\arm-eabi\lib\gnat\ravenscar-sfp-stm32f4\adalib\libgnarl.a(s-bbcppr.o)
                0x08008644                system__bb__cpu_primitives__context_switch
 .text.system__bb__cpu_primitives__get_context
                0x08008654        0x8 C:\gnat\2017\arm-eabi\lib\gnat\ravenscar-sfp-stm32f4\adalib\libgnarl.a(s-bbcppr.o)
                0x08008654                system__bb__cpu_primitives__get_context
 .text.__gnat_irq_trap
                0x0800865c       0x54 C:\gnat\2017\arm-eabi\lib\gnat\ravenscar-sfp-stm32f4\adalib\libgnarl.a(s-bbcppr.o)
                0x0800865c                __gnat_irq_trap
 .text.__gnat_pend_sv_trap
                0x080086b0       0x4c C:\gnat\2017\arm-eabi\lib\gnat\ravenscar-sfp-stm32f4\adalib\libgnarl.a(s-bbcppr.o)
                0x080086b0                __gnat_pend_sv_trap
 .text.__gnat_sv_call_trap
                0x080086fc        0x8 C:\gnat\2017\arm-eabi\lib\gnat\ravenscar-sfp-stm32f4\adalib\libgnarl.a(s-bbcppr.o)
                0x080086fc                __gnat_sv_call_trap
 .text.system__bb__cpu_primitives__set_context
                0x08008704        0x8 C:\gnat\2017\arm-eabi\lib\gnat\ravenscar-sfp-stm32f4\adalib\libgnarl.a(s-bbcppr.o)
                0x08008704                system__bb__cpu_primitives__set_context
 .text.__gnat_sys_tick_trap
                0x0800870c       0x70 C:\gnat\2017\arm-eabi\lib\gnat\ravenscar-sfp-stm32f4\adalib\libgnarl.a(s-bbcppr.o)
                0x0800870c                __gnat_sys_tick_trap
 .text.system__bb__cpu_primitives__initialize_context
                0x0800877c       0x50 C:\gnat\2017\arm-eabi\lib\gnat\ravenscar-sfp-stm32f4\adalib\libgnarl.a(s-bbcppr.o)
                0x0800877c                system__bb__cpu_primitives__initialize_context
 .text.system__bb__cpu_primitives__install_error_handlers
                0x080087cc       0x1c C:\gnat\2017\arm-eabi\lib\gnat\ravenscar-sfp-stm32f4\adalib\libgnarl.a(s-bbcppr.o)
                0x080087cc                system__bb__cpu_primitives__install_error_handlers
 .text.system__bb__cpu_primitives__install_trap_handler
                0x080087e8        0xc C:\gnat\2017\arm-eabi\lib\gnat\ravenscar-sfp-stm32f4\adalib\libgnarl.a(s-bbcppr.o)
                0x080087e8                system__bb__cpu_primitives__install_trap_handler
 .text.system__bb__cpu_primitives__disable_interrupts
                0x080087f4        0x4 C:\gnat\2017\arm-eabi\lib\gnat\ravenscar-sfp-stm32f4\adalib\libgnarl.a(s-bbcppr.o)
                0x080087f4                system__bb__cpu_primitives__disable_interrupts
 .text.system__bb__cpu_primitives__enable_interrupts
                0x080087f8       0x24 C:\gnat\2017\arm-eabi\lib\gnat\ravenscar-sfp-stm32f4\adalib\libgnarl.a(s-bbcppr.o)
                0x080087f8                system__bb__cpu_primitives__enable_interrupts
 .text          0x0800881c       0x70 C:\gnat\2017\arm-eabi\lib\gnat\ravenscar-sfp-stm32f4\adalib\libgnat.a(start-rom.o)
                0x0800881c                _start_rom
 .text          0x0800888c      0x104 C:\gnat\2017\arm-eabi\lib\gnat\ravenscar-sfp-stm32f4\adalib\libgnat.a(start-common.o)
                0x0800888c                _stm32_start_common
 .text          0x08008990       0x20 C:\gnat\2017\arm-eabi\lib\gnat\ravenscar-sfp-stm32f4\adalib\libgnat.a(breakpoint_handler.o)
                0x08008990                __gnat_bkpt_trap
 .text          0x080089b0        0x0 C:\gnat\2017\arm-eabi\lib\gnat\ravenscar-sfp-stm32f4\adalib\libgnat.a(setup_pll.o)
 .text._ada_setup_pll
                0x080089b0      0x394 C:\gnat\2017\arm-eabi\lib\gnat\ravenscar-sfp-stm32f4\adalib\libgnat.a(setup_pll.o)
                0x080089b0                _ada_setup_pll
 .text          0x08008d44        0x0 C:\gnat\2017\arm-eabi\lib\gnat\ravenscar-sfp-stm32f4\adalib\libgnat.a(s-macres.o)
 .text.abort    0x08008d44       0x10 C:\gnat\2017\arm-eabi\lib\gnat\ravenscar-sfp-stm32f4\adalib\libgnat.a(s-macres.o)
                0x08008d44                abort
 .text._exit    0x08008d54       0x10 C:\gnat\2017\arm-eabi\lib\gnat\ravenscar-sfp-stm32f4\adalib\libgnat.a(s-macres.o)
                0x08008d54                _exit
 .text.system__machine_reset__stop
                0x08008d64       0x10 C:\gnat\2017\arm-eabi\lib\gnat\ravenscar-sfp-stm32f4\adalib\libgnat.a(s-macres.o)
                0x08008d64                system__machine_reset__stop
 .text          0x08008d74        0x0 C:\gnat\2017\arm-eabi\lib\gnat\ravenscar-sfp-stm32f4\adalib\libgnat.a(s-assert.o)
 .text.system__assertions__raise_assert_failure
                0x08008d74        0x8 C:\gnat\2017\arm-eabi\lib\gnat\ravenscar-sfp-stm32f4\adalib\libgnat.a(s-assert.o)
                0x08008d74                system__assertions__raise_assert_failure
 .text          0x08008d7c        0x0 C:\gnat\2017\arm-eabi\lib\gnat\ravenscar-sfp-stm32f4\adalib\libgnat.a(s-fatflt.o)
 .text.system__fat_flt__attr_float__ceiling
                0x08008d7c       0x84 C:\gnat\2017\arm-eabi\lib\gnat\ravenscar-sfp-stm32f4\adalib\libgnat.a(s-fatflt.o)
                0x08008d7c                system__fat_flt__attr_float__ceiling
 .text.system__fat_flt__attr_float__copy_sign
                0x08008e00       0x24 C:\gnat\2017\arm-eabi\lib\gnat\ravenscar-sfp-stm32f4\adalib\libgnat.a(s-fatflt.o)
                0x08008e00                system__fat_flt__attr_float__copy_sign
 .text.system__fat_flt__attr_float__decompose
                0x08008e24      0x170 C:\gnat\2017\arm-eabi\lib\gnat\ravenscar-sfp-stm32f4\adalib\libgnat.a(s-fatflt.o)
                0x08008e24                system__fat_flt__attr_float__decompose
 .text.system__fat_flt__attr_float__exponent
                0x08008f94       0x14 C:\gnat\2017\arm-eabi\lib\gnat\ravenscar-sfp-stm32f4\adalib\libgnat.a(s-fatflt.o)
                0x08008f94                system__fat_flt__attr_float__exponent
 .text.system__fat_flt__attr_float__floor
                0x08008fa8       0x84 C:\gnat\2017\arm-eabi\lib\gnat\ravenscar-sfp-stm32f4\adalib\libgnat.a(s-fatflt.o)
                0x08008fa8                system__fat_flt__attr_float__floor
 .text.system__fat_flt__attr_float__fraction
                0x0800902c       0x14 C:\gnat\2017\arm-eabi\lib\gnat\ravenscar-sfp-stm32f4\adalib\libgnat.a(s-fatflt.o)
                0x0800902c                system__fat_flt__attr_float__fraction
 .text.system__fat_flt__attr_float__machine
                0x08009040       0x10 C:\gnat\2017\arm-eabi\lib\gnat\ravenscar-sfp-stm32f4\adalib\libgnat.a(s-fatflt.o)
                0x08009040                system__fat_flt__attr_float__machine
 .text.system__fat_flt__attr_float__model
                0x08009050       0x10 C:\gnat\2017\arm-eabi\lib\gnat\ravenscar-sfp-stm32f4\adalib\libgnat.a(s-fatflt.o)
                0x08009050                system__fat_flt__attr_float__model
 .text.system__fat_flt__attr_float__rounding
                0x08009060       0x8c C:\gnat\2017\arm-eabi\lib\gnat\ravenscar-sfp-stm32f4\adalib\libgnat.a(s-fatflt.o)
                0x08009060                system__fat_flt__attr_float__rounding
 .text.system__fat_flt__attr_float__machine_rounding
                0x080090ec        0x4 C:\gnat\2017\arm-eabi\lib\gnat\ravenscar-sfp-stm32f4\adalib\libgnat.a(s-fatflt.o)
                0x080090ec                system__fat_flt__attr_float__machine_rounding
 .text.system__fat_flt__attr_float__scaling
                0x080090f0       0xbc C:\gnat\2017\arm-eabi\lib\gnat\ravenscar-sfp-stm32f4\adalib\libgnat.a(s-fatflt.o)
                0x080090f0                system__fat_flt__attr_float__scaling
 .text.system__fat_flt__attr_float__compose
                0x080091ac       0x1c C:\gnat\2017\arm-eabi\lib\gnat\ravenscar-sfp-stm32f4\adalib\libgnat.a(s-fatflt.o)
                0x080091ac                system__fat_flt__attr_float__compose
 .text.system__fat_flt__attr_float__remainder
                0x080091c8       0xe4 C:\gnat\2017\arm-eabi\lib\gnat\ravenscar-sfp-stm32f4\adalib\libgnat.a(s-fatflt.o)
                0x080091c8                system__fat_flt__attr_float__remainder
 .text.system__fat_flt__attr_float__gradual_scaling
                0x080092ac       0x38 C:\gnat\2017\arm-eabi\lib\gnat\ravenscar-sfp-stm32f4\adalib\libgnat.a(s-fatflt.o)
                0x080092ac                system__fat_flt__attr_float__gradual_scaling
 .text.system__fat_flt__attr_float__leading_part
                0x080092e4       0xa0 C:\gnat\2017\arm-eabi\lib\gnat\ravenscar-sfp-stm32f4\adalib\libgnat.a(s-fatflt.o)
                0x080092e4                system__fat_flt__attr_float__leading_part
 .text.system__fat_flt__attr_float__succ
                0x08009384       0x9c C:\gnat\2017\arm-eabi\lib\gnat\ravenscar-sfp-stm32f4\adalib\libgnat.a(s-fatflt.o)
                0x08009384                system__fat_flt__attr_float(short, char __restrict, char)
 .text.system__fat_flt__attr_float__pred
                0x08009420       0x90 C:\gnat\2017\arm-eabi\lib\gnat\ravenscar-sfp-stm32f4\adalib\libgnat.a(s-fatflt.o)
                0x08009420                system__fat_flt__attr_float(long double *,...)(double)
 .text.system__fat_flt__attr_float__adjacent
                0x080094b0       0x20 C:\gnat\2017\arm-eabi\lib\gnat\ravenscar-sfp-stm32f4\adalib\libgnat.a(s-fatflt.o)
                0x080094b0                system__fat_flt__attr_float__adjacent
 .text.system__fat_flt__attr_float__truncation
                0x080094d0       0x70 C:\gnat\2017\arm-eabi\lib\gnat\ravenscar-sfp-stm32f4\adalib\libgnat.a(s-fatflt.o)
                0x080094d0                system__fat_flt__attr_float__truncation
 .text.system__fat_flt__attr_float__unbiased_rounding
                0x08009540       0xf4 C:\gnat\2017\arm-eabi\lib\gnat\ravenscar-sfp-stm32f4\adalib\libgnat.a(s-fatflt.o)
                0x08009540                system__fat_flt__attr_float__unbiased_rounding
 .text.system__fat_flt__attr_float__valid
                0x08009634       0x10 C:\gnat\2017\arm-eabi\lib\gnat\ravenscar-sfp-stm32f4\adalib\libgnat.a(s-fatflt.o)
                0x08009634                system__fat_flt__attr_float__valid
 .text          0x08009644        0x0 C:\gnat\2017\arm-eabi\lib\gnat\ravenscar-sfp-stm32f4\adalib\libgnat.a(s-memset.o)
 .text.memset   0x08009644       0x14 C:\gnat\2017\arm-eabi\lib\gnat\ravenscar-sfp-stm32f4\adalib\libgnat.a(s-memset.o)
                0x08009644                memset
 .text          0x08009658        0x0 C:\gnat\2017\arm-eabi\lib\gnat\ravenscar-sfp-stm32f4\adalib\libgnat.a(s-memcom.o)
 .text.memcmp   0x08009658       0x3c C:\gnat\2017\arm-eabi\lib\gnat\ravenscar-sfp-stm32f4\adalib\libgnat.a(s-memcom.o)
                0x08009658                memcmp
 .text          0x08009694        0x0 C:\gnat\2017\arm-eabi\lib\gnat\ravenscar-sfp-stm32f4\adalib\libgnat.a(s-secsta.o)
 .text.system__secondary_stack__memoryIP
                0x08009694        0x4 C:\gnat\2017\arm-eabi\lib\gnat\ravenscar-sfp-stm32f4\adalib\libgnat.a(s-secsta.o)
                0x08009694                system__secondary_stack__memoryIP
 .text.system__secondary_stack__ss_allocate
                0x08009698       0x30 C:\gnat\2017\arm-eabi\lib\gnat\ravenscar-sfp-stm32f4\adalib\libgnat.a(s-secsta.o)
                0x08009698                system__secondary_stack__ss_allocate
 .text.system__secondary_stack__ss_init
                0x080096c8        0xc C:\gnat\2017\arm-eabi\lib\gnat\ravenscar-sfp-stm32f4\adalib\libgnat.a(s-secsta.o)
                0x080096c8                system__secondary_stack__ss_init
 .text.system__secondary_stack__ss_mark
                0x080096d4        0xc C:\gnat\2017\arm-eabi\lib\gnat\ravenscar-sfp-stm32f4\adalib\libgnat.a(s-secsta.o)
                0x080096d4                system__secondary_stack__ss_mark
 .text.system__secondary_stack__ss_release
                0x080096e0        0xc C:\gnat\2017\arm-eabi\lib\gnat\ravenscar-sfp-stm32f4\adalib\libgnat.a(s-secsta.o)
                0x080096e0                system__secondary_stack__ss_release
 .text          0x080096ec        0x0 C:\gnat\2017\arm-eabi\lib\gnat\ravenscar-sfp-stm32f4\adalib\libgnat.a(s-bbmcpa.o)
 .text.system__bb__mcu_parameters__is_pwr_stabilized
                0x080096ec       0x10 C:\gnat\2017\arm-eabi\lib\gnat\ravenscar-sfp-stm32f4\adalib\libgnat.a(s-bbmcpa.o)
                0x080096ec                system__bb__mcu_parameters__is_pwr_stabilized
 .text.system__bb__mcu_parameters__pwr_initialize
                0x080096fc       0x10 C:\gnat\2017\arm-eabi\lib\gnat\ravenscar-sfp-stm32f4\adalib\libgnat.a(s-bbmcpa.o)
                0x080096fc                system__bb__mcu_parameters__pwr_initialize
 .text.system__bb__mcu_parameters__pwr_overdrive_enable
                0x0800970c        0x4 C:\gnat\2017\arm-eabi\lib\gnat\ravenscar-sfp-stm32f4\adalib\libgnat.a(s-bbmcpa.o)
                0x0800970c                system__bb__mcu_parameters__pwr_overdrive_enable
 .text          0x08009710      0x370 c:/gnat/2017/bin/../lib/gcc/arm-eabi/6.3.1/armv7em/thumb/fpu/fpv4-sp-d16\libgcc.a(_arm_addsubdf3.o)
                0x08009710                __aeabi_drsub
                0x08009718                __aeabi_dsub
                0x08009718                __subdf3
                0x0800971c                __aeabi_dadd
                0x0800971c                __adddf3
                0x08009994                __floatunsidf
                0x08009994                __aeabi_ui2d
                0x080099b4                __floatsidf
                0x080099b4                __aeabi_i2d
                0x080099d8                __aeabi_f2d
                0x080099d8                __extendsfdf2
                0x08009a14                __floatundidf
                0x08009a14                __aeabi_ul2d
                0x08009a24                __floatdidf
                0x08009a24                __aeabi_l2d
 .text          0x08009a80      0x424 c:/gnat/2017/bin/../lib/gcc/arm-eabi/6.3.1/armv7em/thumb/fpu/fpv4-sp-d16\libgcc.a(_arm_muldivdf3.o)
                0x08009a80                __aeabi_dmul
                0x08009a80                __muldf3
                0x08009cd4                __divdf3
                0x08009cd4                __aeabi_ddiv
 .text          0x08009ea4       0xa0 c:/gnat/2017/bin/../lib/gcc/arm-eabi/6.3.1/armv7em/thumb/fpu/fpv4-sp-d16\libgcc.a(_arm_truncdfsf2.o)
                0x08009ea4                __truncdfsf2
                0x08009ea4                __aeabi_d2f
 .text          0x08009f44       0xa0 c:/gnat/2017/bin/../lib/gcc/arm-eabi/6.3.1/armv7em/thumb/fpu/fpv4-sp-d16\libgcc.a(_aeabi_ldivmod.o)
                0x08009f44                __aeabi_ldivmod
 .text          0x08009fe4       0x30 c:/gnat/2017/bin/../lib/gcc/arm-eabi/6.3.1/armv7em/thumb/fpu/fpv4-sp-d16\libgcc.a(_aeabi_uldivmod.o)
                0x08009fe4                __aeabi_uldivmod
 .text          0x0800a014      0x2e4 c:/gnat/2017/bin/../lib/gcc/arm-eabi/6.3.1/armv7em/thumb/fpu/fpv4-sp-d16\libgcc.a(_udivmoddi4.o)
                0x0800a014                __udivmoddi4
 .text          0x0800a2f8        0x4 c:/gnat/2017/bin/../lib/gcc/arm-eabi/6.3.1/armv7em/thumb/fpu/fpv4-sp-d16\libgcc.a(_dvmd_tls.o)
                0x0800a2f8                __aeabi_idiv0
                0x0800a2f8                __aeabi_ldiv0
 *(.gnu.warning)

.glue_7         0x0800a2fc        0x0
 .glue_7        0x0800a2fc        0x0 linker stubs

.glue_7t        0x0800a2fc        0x0
 .glue_7t       0x0800a2fc        0x0 linker stubs

.vfp11_veneer   0x0800a2fc        0x0
 .vfp11_veneer  0x0800a2fc        0x0 linker stubs

.v4_bx          0x0800a2fc        0x0
 .v4_bx         0x0800a2fc        0x0 linker stubs

.iplt           0x0800a2fc        0x0
 .iplt          0x0800a2fc        0x0 generator.o

.ARM.extab      0x0800a2fc        0x0
 *(.ARM.extab* .gnu.linkonce.armextab.*)
 .ARM.extab     0x0800a2fc        0x0 c:/gnat/2017/bin/../lib/gcc/arm-eabi/6.3.1/armv7em/thumb/fpu/fpv4-sp-d16\libgcc.a(_udivmoddi4.o)
                [!provide]                PROVIDE (__exidx_start, .)

.ARM.exidx      0x0800a2fc        0x8
 *(.ARM.exidx* .gnu.linkonce.armexidx.*)
 .ARM.exidx     0x0800a2fc        0x8 c:/gnat/2017/bin/../lib/gcc/arm-eabi/6.3.1/armv7em/thumb/fpu/fpv4-sp-d16\libgcc.a(_udivmoddi4.o)
                [!provide]                PROVIDE (__exidx_end, .)

.rodata         0x0800a308      0xfac
 *(.lit)
 *(.rodata .rodata.* .gnu.linkonce.r*)
 .rodata        0x0800a308       0x35 b__generator.o
                0x0800a308                __gnat_ada_main_program_name
                0x0800a318                __gnat_version
 .rodata        0x0800a33d        0x6 C:\Users\u6013763\Documents\COMP4330Assi1\Objects\anu_base_board.o
                0x0800a33d                anu_base_board__da
                0x0800a33e                anu_base_board__en
                0x0800a33f                anu_base_board__tx
                0x0800a340                anu_base_board(long double, long long)
                0x0800a341                anu_base_board(long double)
                0x0800a342                anu_base_board(long)
 *fill*         0x0800a343        0x1 
 .rodata        0x0800a344       0xd4 C:\Users\u6013763\Documents\COMP4330Assi1\Objects\stm32f4-general_purpose_ios.o
                0x0800a384                stm32f4__general_purpose_ios__gpioi
                0x0800a388                stm32f4__general_purpose_ios__gpioh
                0x0800a38c                stm32f4__general_purpose_ios__gpiog
                0x0800a390                stm32f4__general_purpose_ios__gpiof
                0x0800a394                stm32f4__general_purpose_ios__gpioe
                0x0800a398                stm32f4__general_purpose_ios__gpiod
                0x0800a39c                stm32f4__general_purpose_ios__gpioc
                0x0800a3a0                stm32f4__general_purpose_ios__gpiob
                0x0800a3a4                stm32f4__general_purpose_ios__gpioa
                0x0800a3a8                stm32f4__general_purpose_ios__gpio_pupdr_resets
                0x0800a3cc                stm32f4__general_purpose_ios__gpio_ospeedr_resets
                0x0800a3f0                stm32f4__general_purpose_ios__gpio_otyper_reset
                0x0800a3f4                stm32f4__general_purpose_ios__gpio_moder_resets
 .rodata        0x0800a418       0x28 C:\Users\u6013763\Documents\COMP4330Assi1\Objects\discovery_board-config.o
                0x0800a418                discovery_board__config__button_wire
                0x0800a420                discovery_board__config__led_wires
 .rodata        0x0800a440      0x26c C:\Users\u6013763\Documents\COMP4330Assi1\Objects\stm32f4-general_purpose_ios-ops.o
 .rodata        0x0800a6ac       0x26 C:\Users\u6013763\Documents\COMP4330Assi1\Objects\stm32f4-interrupts_and_events-ops.o
 *fill*         0x0800a6d2        0x2 
 .rodata        0x0800a6d4       0x79 C:\Users\u6013763\Documents\COMP4330Assi1\Objects\stm32f4-reset_and_clock_control.o
                0x0800a734                stm32f4__reset_and_clock_control__mcopre_optionsA
                0x0800a73c                stm32f4__reset_and_clock_control__ppre_optionsA
                0x0800a744                stm32f4__reset_and_clock_control__hpre_optionsA
 *fill*         0x0800a74d        0x3 
 .rodata        0x0800a750       0x30 C:\Users\u6013763\Documents\COMP4330Assi1\Objects\stm32f4-system_configuration_controller-ops.o
 .rodata        0x0800a780       0xbf C:\Users\u6013763\Documents\COMP4330Assi1\Objects\stm32f4-timers.o
                0x0800a7f8                stm32f4__timers__tim14
                0x0800a7fc                stm32f4__timers__tim13
                0x0800a800                stm32f4__timers__tim12
                0x0800a804                stm32f4__timers__tim11
                0x0800a808                stm32f4__timers__tim10
                0x0800a80c                stm32f4__timers__tim9
                0x0800a810                stm32f4__timers__tim8
                0x0800a814                stm32f4__timers__tim7
                0x0800a818                stm32f4__timers__tim6
                0x0800a81c                stm32f4__timers__tim5
                0x0800a820                stm32f4__timers__tim4
                0x0800a824                stm32f4__timers__tim3
                0x0800a828                stm32f4__timers__tim2
                0x0800a82c                stm32f4__timers__tim1
                0x0800a830                stm32f4__timers__etf_optionsA
 *fill*         0x0800a83f        0x1 
 .rodata        0x0800a840       0x28 C:\Users\u6013763\Documents\COMP4330Assi1\Objects\stm32f4-reset_and_clock_control-ops.o
 .rodata        0x0800a868      0x19f C:\Users\u6013763\Documents\COMP4330Assi1\Objects\led_handling.o
 *fill*         0x0800aa07        0x1 
 .rodata        0x0800aa08       0x68 C:\Users\u6013763\Documents\COMP4330Assi1\Objects\discovery_board-led_interface.o
 .rodata        0x0800aa70       0x50 C:\Users\u6013763\Documents\COMP4330Assi1\Objects\stm32f4-usart.o
                0x0800aa9c                stm32f4__usart__usart6
                0x0800aaa0                stm32f4__usart__uart5
                0x0800aaa4                stm32f4__usart__uart4
                0x0800aaa8                stm32f4__usart__usart3
                0x0800aaac                stm32f4__usart__usart2
                0x0800aab0                stm32f4__usart__usart1
                0x0800aab4                stm32f4__usart__astop_optionsA
                0x0800aab8                stm32f4__usart__usart_mode
 .rodata        0x0800aac0       0xc4 C:\Users\u6013763\Documents\COMP4330Assi1\Objects\anu_base_board-config.o
                0x0800aac0                anu_base_board__config__uart_wires
                0x0800aac4                anu_base_board__config__com_wires
                0x0800ab44                anu_base_board__config__led_wires
 .rodata        0x0800ab84      0x22f C:\Users\u6013763\Documents\COMP4330Assi1\Objects\anu_base_board-com_interface.o
 *fill*         0x0800adb3        0x1 
 .rodata        0x0800adb4       0x68 C:\Users\u6013763\Documents\COMP4330Assi1\Objects\anu_base_board-led_interface.o
 .rodata        0x0800ae1c       0x50 C:\Users\u6013763\Documents\COMP4330Assi1\Objects\generator_controllers.o
 .rodata        0x0800ae6c        0xd C:\gnat\2017\arm-eabi\lib\gnat\ravenscar-sfp-stm32f4\adalib\libgnarl.a(s-tposen.o)
 *fill*         0x0800ae79        0x3 
 .rodata        0x0800ae7c       0x39 C:\gnat\2017\arm-eabi\lib\gnat\ravenscar-sfp-stm32f4\adalib\libgnarl.a(s-taskin.o)
 *fill*         0x0800aeb5        0x3 
 .rodata.system__tasking__idle_priority
                0x0800aeb8        0x4 C:\gnat\2017\arm-eabi\lib\gnat\ravenscar-sfp-stm32f4\adalib\libgnarl.a(s-taskin.o)
                0x0800aeb8                system__tasking__idle_priority
 .rodata.system__tasking__library_task_level
                0x0800aebc        0x4 C:\gnat\2017\arm-eabi\lib\gnat\ravenscar-sfp-stm32f4\adalib\libgnarl.a(s-taskin.o)
                0x0800aebc                system__tasking__library_task_level
 .rodata.system__tasking__null_task
                0x0800aec0        0x4 C:\gnat\2017\arm-eabi\lib\gnat\ravenscar-sfp-stm32f4\adalib\libgnarl.a(s-taskin.o)
                0x0800aec0                system__tasking__null_task
 .rodata        0x0800aec4       0x61 C:\gnat\2017\arm-eabi\lib\gnat\ravenscar-sfp-stm32f4\adalib\libgnarl.a(s-tarest.o)
 *fill*         0x0800af25        0x3 
 .rodata.system__task_primitives__operations__idle_stack_size
                0x0800af28        0x4 C:\gnat\2017\arm-eabi\lib\gnat\ravenscar-sfp-stm32f4\adalib\libgnarl.a(s-taprop.o)
                0x0800af28                system__task_primitives__operations__idle_stack_size
 .rodata        0x0800af2c        0xd C:\gnat\2017\arm-eabi\lib\gnat\ravenscar-sfp-stm32f4\adalib\libgnarl.a(s-taprob.o)
 *fill*         0x0800af39        0x3 
 .rodata.system__tasking__protected_objects__null_po
                0x0800af3c        0x4 C:\gnat\2017\arm-eabi\lib\gnat\ravenscar-sfp-stm32f4\adalib\libgnarl.a(s-taprob.o)
                0x0800af3c                system__tasking__protected_objects__null_po
 .rodata.system__parameters__c_malloc_linkname
                0x0800af40        0xd C:\gnat\2017\arm-eabi\lib\gnat\ravenscar-sfp-stm32f4\adalib\libgnarl.a(s-parame.o)
                0x0800af40                system__parameters__c_malloc_linkname
 *fill*         0x0800af4d        0x3 
 .rodata.system__parameters__default_stack_size
                0x0800af50        0x4 C:\gnat\2017\arm-eabi\lib\gnat\ravenscar-sfp-stm32f4\adalib\libgnarl.a(s-parame.o)
                0x0800af50                system__parameters__default_stack_size
 .rodata.system__parameters__dynamic
                0x0800af54        0x4 C:\gnat\2017\arm-eabi\lib\gnat\ravenscar-sfp-stm32f4\adalib\libgnarl.a(s-parame.o)
                0x0800af54                system__parameters__dynamic
 .rodata.system__parameters__garbage_collected
                0x0800af58        0x1 C:\gnat\2017\arm-eabi\lib\gnat\ravenscar-sfp-stm32f4\adalib\libgnarl.a(s-parame.o)
                0x0800af58                system__parameters__garbage_collected
 *fill*         0x0800af59        0x3 
 .rodata.system__parameters__minimum_stack_size
                0x0800af5c        0x4 C:\gnat\2017\arm-eabi\lib\gnat\ravenscar-sfp-stm32f4\adalib\libgnarl.a(s-parame.o)
                0x0800af5c                system__parameters__minimum_stack_size
 .rodata.system__parameters__no_abort
                0x0800af60        0x1 C:\gnat\2017\arm-eabi\lib\gnat\ravenscar-sfp-stm32f4\adalib\libgnarl.a(s-parame.o)
                0x0800af60                system__parameters__no_abort
 .rodata.system__parameters__runtime_traces
                0x0800af61        0x1 C:\gnat\2017\arm-eabi\lib\gnat\ravenscar-sfp-stm32f4\adalib\libgnarl.a(s-parame.o)
                0x0800af61                system__parameters__runtime_traces
 .rodata.system__parameters__sec_stack_dynamic
                0x0800af62        0x1 C:\gnat\2017\arm-eabi\lib\gnat\ravenscar-sfp-stm32f4\adalib\libgnarl.a(s-parame.o)
                0x0800af62                system__parameters__sec_stack_dynamic
 *fill*         0x0800af63        0x1 
 .rodata.system__parameters__sec_stack_percentage
                0x0800af64        0x4 C:\gnat\2017\arm-eabi\lib\gnat\ravenscar-sfp-stm32f4\adalib\libgnarl.a(s-parame.o)
                0x0800af64                system__parameters__sec_stack_percentage
 .rodata.system__parameters__single_lock
                0x0800af68        0x1 C:\gnat\2017\arm-eabi\lib\gnat\ravenscar-sfp-stm32f4\adalib\libgnarl.a(s-parame.o)
                0x0800af68                system__parameters__single_lock
 .rodata.system__parameters__stack_grows_down
                0x0800af69        0x1 C:\gnat\2017\arm-eabi\lib\gnat\ravenscar-sfp-stm32f4\adalib\libgnarl.a(s-parame.o)
                0x0800af69                system__parameters__stack_grows_down
 *fill*         0x0800af6a        0x2 
 .rodata.system__parameters__unspecified_size
                0x0800af6c        0x4 C:\gnat\2017\arm-eabi\lib\gnat\ravenscar-sfp-stm32f4\adalib\libgnarl.a(s-parame.o)
                0x0800af6c                system__parameters__unspecified_size
 .rodata        0x0800af70       0x15 C:\gnat\2017\arm-eabi\lib\gnat\ravenscar-sfp-stm32f4\adalib\libgnarl.a(s-interr.o)
 *fill*         0x0800af85        0x3 
 .rodata.system__interrupts__default_interrupt_priority
                0x0800af88        0x4 C:\gnat\2017\arm-eabi\lib\gnat\ravenscar-sfp-stm32f4\adalib\libgnarl.a(s-interr.o)
                0x0800af88                system__interrupts__default_interrupt_priority
 .rodata.system__bb__timing_events__timing_eventB12s
                0x0800af8c       0x20 C:\gnat\2017\arm-eabi\lib\gnat\ravenscar-sfp-stm32f4\adalib\libgnarl.a(s-bbtiev.o)
                0x0800af8c                system__bb__timing_events__timing_eventB12s
 .rodata.system__bb__timing_events__timing_eventE8s
                0x0800afac       0x25 C:\gnat\2017\arm-eabi\lib\gnat\ravenscar-sfp-stm32f4\adalib\libgnarl.a(s-bbtiev.o)
                0x0800afac                system__bb__timing_events__timing_eventE8s
 *fill*         0x0800afd1        0x3 
 .rodata.system__bb__timing_events__timing_eventP
                0x0800afd4        0x4 C:\gnat\2017\arm-eabi\lib\gnat\ravenscar-sfp-stm32f4\adalib\libgnarl.a(s-bbtiev.o)
                0x0800afd4                system__bb__timing_events__timing_eventP
 .rodata.system__bb__timing_events__timing_eventR10s
                0x0800afd8        0x4 C:\gnat\2017\arm-eabi\lib\gnat\ravenscar-sfp-stm32f4\adalib\libgnarl.a(s-bbtiev.o)
                0x0800afd8                system__bb__timing_events__timing_eventR10s
 .rodata.system__bb__timing_events__timing_eventR10s___UNC
                0x0800afdc        0xc C:\gnat\2017\arm-eabi\lib\gnat\ravenscar-sfp-stm32f4\adalib\libgnarl.a(s-bbtiev.o)
                0x0800afdc                system__bb__timing_events__timing_eventR10s___UNC
 .rodata.system__bb__timing_events__timing_eventT
                0x0800afe8       0x20 C:\gnat\2017\arm-eabi\lib\gnat\ravenscar-sfp-stm32f4\adalib\libgnarl.a(s-bbtiev.o)
                0x0800afe8                system__bb__timing_events__timing_eventT
 .rodata.system__bb__timing_events__timing_eventY
                0x0800b008        0x4 C:\gnat\2017\arm-eabi\lib\gnat\ravenscar-sfp-stm32f4\adalib\libgnarl.a(s-bbtiev.o)
                0x0800b008                system__bb__timing_events__timing_eventY
 .rodata.system__bb__threads__null_thread_id
                0x0800b00c        0x4 C:\gnat\2017\arm-eabi\lib\gnat\ravenscar-sfp-stm32f4\adalib\libgnarl.a(s-bbthre.o)
                0x0800b00c                system__bb__threads__null_thread_id
 .rodata.ada__synchronous_task_control__suspension_objectA
                0x0800b010        0x8 C:\gnat\2017\arm-eabi\lib\gnat\ravenscar-sfp-stm32f4\adalib\libgnarl.a(a-sytaco.o)
                0x0800b010                ada__synchronous_task_control__suspension_objectA
 .rodata        0x0800b018        0xd C:\gnat\2017\arm-eabi\lib\gnat\ravenscar-sfp-stm32f4\adalib\libgnarl.a(a-retide.o)
 *fill*         0x0800b025        0x3 
 .rodata        0x0800b028        0xd C:\gnat\2017\arm-eabi\lib\gnat\ravenscar-sfp-stm32f4\adalib\libgnarl.a(a-reatim.o)
 *fill*         0x0800b035        0x3 
 .rodata.ada__real_time__duration_units
                0x0800b038        0x4 C:\gnat\2017\arm-eabi\lib\gnat\ravenscar-sfp-stm32f4\adalib\libgnarl.a(a-reatim.o)
                0x0800b038                ada__real_time__duration_units
 *fill*         0x0800b03c        0x4 
 .rodata.ada__real_time__tick
                0x0800b040        0x8 C:\gnat\2017\arm-eabi\lib\gnat\ravenscar-sfp-stm32f4\adalib\libgnarl.a(a-reatim.o)
                0x0800b040                ada__real_time__tick
 .rodata.ada__real_time__time_first
                0x0800b048        0x8 C:\gnat\2017\arm-eabi\lib\gnat\ravenscar-sfp-stm32f4\adalib\libgnarl.a(a-reatim.o)
                0x0800b048                ada__real_time__time_first
 .rodata.ada__real_time__time_last
                0x0800b050        0x8 C:\gnat\2017\arm-eabi\lib\gnat\ravenscar-sfp-stm32f4\adalib\libgnarl.a(a-reatim.o)
                0x0800b050                ada__real_time__time_last
 .rodata.ada__real_time__time_span_first
                0x0800b058        0x8 C:\gnat\2017\arm-eabi\lib\gnat\ravenscar-sfp-stm32f4\adalib\libgnarl.a(a-reatim.o)
                0x0800b058                ada__real_time__time_span_first
 .rodata.ada__real_time__time_span_last
                0x0800b060        0x8 C:\gnat\2017\arm-eabi\lib\gnat\ravenscar-sfp-stm32f4\adalib\libgnarl.a(a-reatim.o)
                0x0800b060                ada__real_time__time_span_last
 .rodata.ada__real_time__time_span_unit
                0x0800b068        0x8 C:\gnat\2017\arm-eabi\lib\gnat\ravenscar-sfp-stm32f4\adalib\libgnarl.a(a-reatim.o)
                0x0800b068                ada__real_time__time_span_unit
 .rodata.ada__real_time__time_span_zero
                0x0800b070        0x8 C:\gnat\2017\arm-eabi\lib\gnat\ravenscar-sfp-stm32f4\adalib\libgnarl.a(a-reatim.o)
                0x0800b070                ada__real_time__time_span_zero
 .rodata.system__bb__interrupts__no_interrupt
                0x0800b078        0x4 C:\gnat\2017\arm-eabi\lib\gnat\ravenscar-sfp-stm32f4\adalib\libgnarl.a(s-bbinte.o)
                0x0800b078                system__bb__interrupts__no_interrupt
 .rodata.system__bb__board_support__alarm_interrupt_id
                0x0800b07c        0x4 C:\gnat\2017\arm-eabi\lib\gnat\ravenscar-sfp-stm32f4\adalib\libgnarl.a(s-bbbosu.o)
                0x0800b07c                system__bb__board_support__alarm_interrupt_id
 .rodata.system__bb__board_support__interrupt_request_vector
                0x0800b080        0x1 C:\gnat\2017\arm-eabi\lib\gnat\ravenscar-sfp-stm32f4\adalib\libgnarl.a(s-bbbosu.o)
                0x0800b080                system__bb__board_support__interrupt_request_vector
 *fill*         0x0800b081        0x3 
 .rodata.system__bb__board_support__nvic_iser0
                0x0800b084        0x4 C:\gnat\2017\arm-eabi\lib\gnat\ravenscar-sfp-stm32f4\adalib\libgnarl.a(s-bbbosu.o)
                0x0800b084                system__bb__board_support__nvic_iser0
 .rodata.system__bb__board_support__sys_tick_vector
                0x0800b088        0x1 C:\gnat\2017\arm-eabi\lib\gnat\ravenscar-sfp-stm32f4\adalib\libgnarl.a(s-bbbosu.o)
                0x0800b088                system__bb__board_support__sys_tick_vector
 *fill*         0x0800b089        0x3 
 .rodata.system__bb__board_support__tick_period
                0x0800b08c        0x4 C:\gnat\2017\arm-eabi\lib\gnat\ravenscar-sfp-stm32f4\adalib\libgnarl.a(s-bbbosu.o)
                0x0800b08c                system__bb__board_support__tick_period
 .rodata.system__bb__time__initial_composite_execution_time
                0x0800b090        0x8 C:\gnat\2017\arm-eabi\lib\gnat\ravenscar-sfp-stm32f4\adalib\libgnarl.a(s-bbtime.o)
                0x0800b090                system__bb__time__initial_composite_execution_time
 .rodata.system__bb__time__periods_in_epoch
                0x0800b098        0x4 C:\gnat\2017\arm-eabi\lib\gnat\ravenscar-sfp-stm32f4\adalib\libgnarl.a(s-bbtime.o)
                0x0800b098                system__bb__time__periods_in_epoch
 .rodata.system__bb__time__update_in_progress
                0x0800b09c        0x4 C:\gnat\2017\arm-eabi\lib\gnat\ravenscar-sfp-stm32f4\adalib\libgnarl.a(s-bbtime.o)
                0x0800b09c                system__bb__time__update_in_progress
 .rodata        0x0800b0a0      0x167 C:\gnat\2017\arm-eabi\lib\gnat\ravenscar-sfp-stm32f4\adalib\libgnarl.a(s-bbcppr.o)
 .rodata.system__bb__cpu_primitives__bus_fault_vector
                0x0800b207        0x1 C:\gnat\2017\arm-eabi\lib\gnat\ravenscar-sfp-stm32f4\adalib\libgnarl.a(s-bbcppr.o)
                0x0800b207                system__bb__cpu_primitives__bus_fault_vector
 .rodata.system__bb__cpu_primitives__hard_fault_vector
                0x0800b208        0x1 C:\gnat\2017\arm-eabi\lib\gnat\ravenscar-sfp-stm32f4\adalib\libgnarl.a(s-bbcppr.o)
                0x0800b208                system__bb__cpu_primitives__hard_fault_vector
 *fill*         0x0800b209        0x3 
 .rodata.system__bb__cpu_primitives__icsr_pend_sv_set
                0x0800b20c        0x4 C:\gnat\2017\arm-eabi\lib\gnat\ravenscar-sfp-stm32f4\adalib\libgnarl.a(s-bbcppr.o)
                0x0800b20c                system__bb__cpu_primitives__icsr_pend_sv_set
 .rodata.system__bb__cpu_primitives__interrupt_request_vector
                0x0800b210        0x1 C:\gnat\2017\arm-eabi\lib\gnat\ravenscar-sfp-stm32f4\adalib\libgnarl.a(s-bbcppr.o)
                0x0800b210                system__bb__cpu_primitives__interrupt_request_vector
 *fill*         0x0800b211        0x3 
 .rodata.system__bb__cpu_primitives__nl
                0x0800b214        0x2 C:\gnat\2017\arm-eabi\lib\gnat\ravenscar-sfp-stm32f4\adalib\libgnarl.a(s-bbcppr.o)
                0x0800b214                system__bb__cpu_primitives__nl
 .rodata.system__bb__cpu_primitives__nmi_vector
                0x0800b216        0x1 C:\gnat\2017\arm-eabi\lib\gnat\ravenscar-sfp-stm32f4\adalib\libgnarl.a(s-bbcppr.o)
                0x0800b216                system__bb__cpu_primitives__nmi_vector
 .rodata.system__bb__cpu_primitives__no_floating_point
                0x0800b217        0x1 C:\gnat\2017\arm-eabi\lib\gnat\ravenscar-sfp-stm32f4\adalib\libgnarl.a(s-bbcppr.o)
                0x0800b217                system__bb__cpu_primitives__no_floating_point
 .rodata.system__bb__cpu_primitives__pend_sv_vector
                0x0800b218        0x1 C:\gnat\2017\arm-eabi\lib\gnat\ravenscar-sfp-stm32f4\adalib\libgnarl.a(s-bbcppr.o)
                0x0800b218                system__bb__cpu_primitives__pend_sv_vector
 .rodata.system__bb__cpu_primitives__reset_vector
                0x0800b219        0x1 C:\gnat\2017\arm-eabi\lib\gnat\ravenscar-sfp-stm32f4\adalib\libgnarl.a(s-bbcppr.o)
                0x0800b219                system__bb__cpu_primitives__reset_vector
 .rodata.system__bb__cpu_primitives__sp_process
                0x0800b21a        0x1 C:\gnat\2017\arm-eabi\lib\gnat\ravenscar-sfp-stm32f4\adalib\libgnarl.a(s-bbcppr.o)
                0x0800b21a                system__bb__cpu_primitives__sp_process
 .rodata.system__bb__cpu_primitives__sv_call_vector
                0x0800b21b        0x1 C:\gnat\2017\arm-eabi\lib\gnat\ravenscar-sfp-stm32f4\adalib\libgnarl.a(s-bbcppr.o)
                0x0800b21b                system__bb__cpu_primitives__sv_call_vector
 .rodata.system__bb__cpu_primitives__sys_tick_vector
                0x0800b21c        0x1 C:\gnat\2017\arm-eabi\lib\gnat\ravenscar-sfp-stm32f4\adalib\libgnarl.a(s-bbcppr.o)
                0x0800b21c                system__bb__cpu_primitives__sys_tick_vector
 .rodata.system__bb__cpu_primitives__usage_fault_vector
                0x0800b21d        0x1 C:\gnat\2017\arm-eabi\lib\gnat\ravenscar-sfp-stm32f4\adalib\libgnarl.a(s-bbcppr.o)
                0x0800b21d                system__bb__cpu_primitives__usage_fault_vector
 *fill*         0x0800b21e        0x2 
 .rodata        0x0800b220        0x1 C:\gnat\2017\arm-eabi\lib\gnat\ravenscar-sfp-stm32f4\adalib\libgnat.a(setup_pll.o)
 *fill*         0x0800b221        0x3 
 .rodata.system__assertions__R2s
                0x0800b224        0x4 C:\gnat\2017\arm-eabi\lib\gnat\ravenscar-sfp-stm32f4\adalib\libgnat.a(s-assert.o)
                0x0800b224                system__assertions__R2s
 .rodata.system__assertions__assert_failureE
                0x0800b228        0x1 C:\gnat\2017\arm-eabi\lib\gnat\ravenscar-sfp-stm32f4\adalib\libgnat.a(s-assert.o)
                0x0800b228                system__assertions__assert_failureE
 *fill*         0x0800b229        0x3 
 .rodata        0x0800b22c        0xd C:\gnat\2017\arm-eabi\lib\gnat\ravenscar-sfp-stm32f4\adalib\libgnat.a(s-fatflt.o)
 *fill*         0x0800b239        0x3 
 .rodata.system__fat_flt__attr_float__float_radix
                0x0800b23c        0x4 C:\gnat\2017\arm-eabi\lib\gnat\ravenscar-sfp-stm32f4\adalib\libgnat.a(s-fatflt.o)
                0x0800b23c                system__fat_flt__attr_float__float_radix
 .rodata.system__fat_flt__attr_float__invrad
                0x0800b240        0x4 C:\gnat\2017\arm-eabi\lib\gnat\ravenscar-sfp-stm32f4\adalib\libgnat.a(s-fatflt.o)
                0x0800b240                system__fat_flt__attr_float__invrad
 .rodata.system__fat_flt__attr_float__log_power
                0x0800b244       0x1c C:\gnat\2017\arm-eabi\lib\gnat\ravenscar-sfp-stm32f4\adalib\libgnat.a(s-fatflt.o)
                0x0800b244                system__fat_flt__attr_float__log_power
 .rodata.system__fat_flt__attr_float__r_neg_power
                0x0800b260       0x1c C:\gnat\2017\arm-eabi\lib\gnat\ravenscar-sfp-stm32f4\adalib\libgnat.a(s-fatflt.o)
                0x0800b260                system__fat_flt__attr_float__r_neg_power
 .rodata.system__fat_flt__attr_float__r_power
                0x0800b27c       0x1c C:\gnat\2017\arm-eabi\lib\gnat\ravenscar-sfp-stm32f4\adalib\libgnat.a(s-fatflt.o)
                0x0800b27c                system__fat_flt__attr_float__r_power
 .rodata.system__fat_flt__attr_float__rad
                0x0800b298        0x4 C:\gnat\2017\arm-eabi\lib\gnat\ravenscar-sfp-stm32f4\adalib\libgnat.a(s-fatflt.o)
                0x0800b298                system__fat_flt__attr_float__rad
 .rodata.system__fat_flt__attr_float__radix_to_m_minus_1
                0x0800b29c        0x4 C:\gnat\2017\arm-eabi\lib\gnat\ravenscar-sfp-stm32f4\adalib\libgnat.a(s-fatflt.o)
                0x0800b29c                system__fat_flt__attr_float__radix_to_m_minus_1
 .rodata        0x0800b2a0        0xd C:\gnat\2017\arm-eabi\lib\gnat\ravenscar-sfp-stm32f4\adalib\libgnat.a(s-secsta.o)
 *fill*         0x0800b2ad        0x3 
 .rodata.system__secondary_stack__minimum_secondary_stack_size
                0x0800b2b0        0x4 C:\gnat\2017\arm-eabi\lib\gnat\ravenscar-sfp-stm32f4\adalib\libgnat.a(s-secsta.o)
                0x0800b2b0                system__secondary_stack__minimum_secondary_stack_size
                0x0800b2b4                . = ALIGN (0x4)
                0x0800b2b4                __rom_end = .
                0x0800b2b4                __data_load = __rom_end

.rel.dyn        0x0800b2b4        0x0
 .rel.iplt      0x0800b2b4        0x0 generator.o

.data           0x20000000      0x4d4 load address 0x0800b2b4
                0x20000000                __data_start = .
 *(.data .data.* .gnu.linkonce.d*)
 .data          0x20000000        0x0 generator.o
 .data          0x20000000        0x2 b__generator.o
                0x20000000                ada_main_E
 .data          0x20000002        0x2 C:\Users\u6013763\Documents\COMP4330Assi1\Objects\anu_base_board.o
                0x20000002                anu_base_board_E
 .data          0x20000004        0x2 C:\Users\u6013763\Documents\COMP4330Assi1\Objects\discovery_board.o
                0x20000004                discovery_board_E
 .data          0x20000006        0x0 C:\Users\u6013763\Documents\COMP4330Assi1\Objects\stm32f4.o
 .data          0x20000006        0x0 C:\Users\u6013763\Documents\COMP4330Assi1\Objects\stm32f4-general_purpose_ios.o
 .data          0x20000006        0x2 C:\Users\u6013763\Documents\COMP4330Assi1\Objects\discovery_board-config.o
                0x20000006                discovery_board__config_E
 .data          0x20000008        0x6 C:\Users\u6013763\Documents\COMP4330Assi1\Objects\stm32f4-general_purpose_ios-ops.o
                0x20000008                stm32f4__general_purpose_ios__ops__C14s
                0x2000000c                stm32f4__general_purpose_ios__ops_E
 .data          0x2000000e        0x0 C:\Users\u6013763\Documents\COMP4330Assi1\Objects\stm32f4-interrupts_and_events.o
 .data          0x2000000e        0x2 C:\Users\u6013763\Documents\COMP4330Assi1\Objects\stm32f4-interrupts_and_events-ops.o
                0x2000000e                stm32f4__interrupts_and_events__ops_E
 .data          0x20000010        0x0 C:\Users\u6013763\Documents\COMP4330Assi1\Objects\stm32f4-reset_and_clock_control.o
 .data          0x20000010        0x0 C:\Users\u6013763\Documents\COMP4330Assi1\Objects\stm32f4-system_configuration_controller.o
 .data          0x20000010        0x2 C:\Users\u6013763\Documents\COMP4330Assi1\Objects\stm32f4-system_configuration_controller-ops.o
                0x20000010                stm32f4__system_configuration_controller__ops_E
 .data          0x20000012        0x0 C:\Users\u6013763\Documents\COMP4330Assi1\Objects\stm32f4-timers.o
 .data          0x20000012        0x2 C:\Users\u6013763\Documents\COMP4330Assi1\Objects\stm32f4-reset_and_clock_control-ops.o
                0x20000012                stm32f4__reset_and_clock_control__ops_E
 .data          0x20000014        0x2 C:\Users\u6013763\Documents\COMP4330Assi1\Objects\led_handling.o
                0x20000014                led_handling_E
 *fill*         0x20000016        0x2 
 .data          0x20000018        0x6 C:\Users\u6013763\Documents\COMP4330Assi1\Objects\discovery_board-led_interface.o
                0x20000018                discovery_board__led_interface__user_leds
                0x2000001c                discovery_board__led_interface_E
 .data          0x2000001e        0x2 C:\Users\u6013763\Documents\COMP4330Assi1\Objects\last_chance_handler.o
                0x2000001e                last_chance_handler_E
 .data          0x20000020       0x20 C:\Users\u6013763\Documents\COMP4330Assi1\Objects\stm32f4-usart.o
                0x20000020                stm32f4__usart__usart_gtpr_reset
                0x20000024                stm32f4__usart__uart_cr3_reset
                0x20000028                stm32f4__usart__usart_cr3_reset
                0x2000002c                stm32f4__usart__uart_cr2_reset
                0x20000030                stm32f4__usart__usart_cr2_reset
                0x20000034                stm32f4__usart__usart_cr1_reset
                0x20000038                stm32f4__usart__usart_brr_reset
                0x2000003c                stm32f4__usart__usart_sr_reset
 .data          0x20000040        0x2 C:\Users\u6013763\Documents\COMP4330Assi1\Objects\anu_base_board-config.o
                0x20000040                anu_base_board__config_E
 .data          0x20000042        0x2 C:\Users\u6013763\Documents\COMP4330Assi1\Objects\anu_base_board-com_interface.o
                0x20000042                anu_base_board__com_interface_E
 .data          0x20000044        0x2 C:\Users\u6013763\Documents\COMP4330Assi1\Objects\anu_base_board-led_interface.o
                0x20000044                anu_base_board__led_interface_E
 .data          0x20000046        0x6 C:\Users\u6013763\Documents\COMP4330Assi1\Objects\generator_controllers.o
                0x2000004a                generator_controllers_E
 .data          0x2000004c        0x0 C:\gnat\2017\arm-eabi\lib\gnat\ravenscar-sfp-stm32f4\adalib\libgnarl.a(s-tposen.o)
 .data.system__tasking__protected_objects__single_entry_E
                0x2000004c        0x2 C:\gnat\2017\arm-eabi\lib\gnat\ravenscar-sfp-stm32f4\adalib\libgnarl.a(s-tposen.o)
                0x2000004c                system__tasking__protected_objects__single_entry_E
 .data          0x2000004e        0x0 C:\gnat\2017\arm-eabi\lib\gnat\ravenscar-sfp-stm32f4\adalib\libgnarl.a(s-tpobmu.o)
 .data.system__tasking__protected_objects__multiprocessors_E
                0x2000004e        0x2 C:\gnat\2017\arm-eabi\lib\gnat\ravenscar-sfp-stm32f4\adalib\libgnarl.a(s-tpobmu.o)
                0x2000004e                system__tasking__protected_objects__multiprocessors_E
 .data          0x20000050        0x0 C:\gnat\2017\arm-eabi\lib\gnat\ravenscar-sfp-stm32f4\adalib\libgnarl.a(s-taskin.o)
 .data.__gl_main_cpu
                0x20000050        0x4 C:\gnat\2017\arm-eabi\lib\gnat\ravenscar-sfp-stm32f4\adalib\libgnarl.a(s-taskin.o)
                0x20000050                __gl_main_cpu
 .data.__gl_main_priority
                0x20000054        0x4 C:\gnat\2017\arm-eabi\lib\gnat\ravenscar-sfp-stm32f4\adalib\libgnarl.a(s-taskin.o)
                0x20000054                __gl_main_priority
 .data.system__tasking__fall_back_handler
                0x20000058        0x8 C:\gnat\2017\arm-eabi\lib\gnat\ravenscar-sfp-stm32f4\adalib\libgnarl.a(s-taskin.o)
                0x20000058                system__tasking__fall_back_handler
 .data.system__tasking__initialized
                0x20000060        0x1 C:\gnat\2017\arm-eabi\lib\gnat\ravenscar-sfp-stm32f4\adalib\libgnarl.a(s-taskin.o)
 .data          0x20000061        0x0 C:\gnat\2017\arm-eabi\lib\gnat\ravenscar-sfp-stm32f4\adalib\libgnarl.a(s-tasdeb.o)
 *fill*         0x20000061        0x1 
 .data.system__tasking__debug_E
                0x20000062        0x2 C:\gnat\2017\arm-eabi\lib\gnat\ravenscar-sfp-stm32f4\adalib\libgnarl.a(s-tasdeb.o)
                0x20000062                system__tasking__debug_E
 .data.system__tasking__debug__first_task
                0x20000064        0x4 C:\gnat\2017\arm-eabi\lib\gnat\ravenscar-sfp-stm32f4\adalib\libgnarl.a(s-tasdeb.o)
                0x20000064                system__tasking__debug__first_task
 .data.system__tasking__debug__last_task
                0x20000068        0x4 C:\gnat\2017\arm-eabi\lib\gnat\ravenscar-sfp-stm32f4\adalib\libgnarl.a(s-tasdeb.o)
                0x20000068                system__tasking__debug__last_task
 .data          0x2000006c        0x0 C:\gnat\2017\arm-eabi\lib\gnat\ravenscar-sfp-stm32f4\adalib\libgnarl.a(s-tarest.o)
 .data.__gnat_partition_elaboration_policy
                0x2000006c        0x1 C:\gnat\2017\arm-eabi\lib\gnat\ravenscar-sfp-stm32f4\adalib\libgnarl.a(s-tarest.o)
                0x2000006c                __gnat_partition_elaboration_policy
 *fill*         0x2000006d        0x1 
 .data.system__tasking__restricted__stages_E
                0x2000006e        0x2 C:\gnat\2017\arm-eabi\lib\gnat\ravenscar-sfp-stm32f4\adalib\libgnarl.a(s-tarest.o)
                0x2000006e                system__tasking__restricted__stages_E
 .data.system__tasking__restricted__stages__tasks_activation_chain
                0x20000070        0x4 C:\gnat\2017\arm-eabi\lib\gnat\ravenscar-sfp-stm32f4\adalib\libgnarl.a(s-tarest.o)
 .data          0x20000074        0x0 C:\gnat\2017\arm-eabi\lib\gnat\ravenscar-sfp-stm32f4\adalib\libgnarl.a(s-taprop.o)
 .data.system__task_primitives__operations__environment_task
                0x20000074        0x4 C:\gnat\2017\arm-eabi\lib\gnat\ravenscar-sfp-stm32f4\adalib\libgnarl.a(s-taprop.o)
                0x20000074                system__task_primitives__operations__environment_task
 .data          0x20000078        0x0 C:\gnat\2017\arm-eabi\lib\gnat\ravenscar-sfp-stm32f4\adalib\libgnarl.a(s-taprob.o)
 .data.system__tasking__protected_objects_E
                0x20000078        0x2 C:\gnat\2017\arm-eabi\lib\gnat\ravenscar-sfp-stm32f4\adalib\libgnarl.a(s-taprob.o)
                0x20000078                system__tasking__protected_objects_E
 .data          0x2000007a        0x0 C:\gnat\2017\arm-eabi\lib\gnat\ravenscar-sfp-stm32f4\adalib\libgnarl.a(s-parame.o)
 .data.system__parameters_E
                0x2000007a        0x2 C:\gnat\2017\arm-eabi\lib\gnat\ravenscar-sfp-stm32f4\adalib\libgnarl.a(s-parame.o)
                0x2000007a                system__parameters_E
 .data          0x2000007c        0x0 C:\gnat\2017\arm-eabi\lib\gnat\ravenscar-sfp-stm32f4\adalib\libgnarl.a(s-interr.o)
 .data.system__interrupts__user_handlers
                0x2000007c      0x3e4 C:\gnat\2017\arm-eabi\lib\gnat\ravenscar-sfp-stm32f4\adalib\libgnarl.a(s-interr.o)
 .data          0x20000460        0x0 C:\gnat\2017\arm-eabi\lib\gnat\ravenscar-sfp-stm32f4\adalib\libgnarl.a(s-bcprmu.o)
 .data          0x20000460        0x0 C:\gnat\2017\arm-eabi\lib\gnat\ravenscar-sfp-stm32f4\adalib\libgnarl.a(s-bbtiev.o)
 .data.system__bb__timing_events_E
                0x20000460        0x2 C:\gnat\2017\arm-eabi\lib\gnat\ravenscar-sfp-stm32f4\adalib\libgnarl.a(s-bbtiev.o)
                0x20000460                system__bb__timing_events_E
 *fill*         0x20000462        0x2 
 .data.system__bb__timing_events__events_table
                0x20000464        0x4 C:\gnat\2017\arm-eabi\lib\gnat\ravenscar-sfp-stm32f4\adalib\libgnarl.a(s-bbtiev.o)
                0x20000464                system__bb__timing_events__events_table
 .data          0x20000468        0x0 C:\gnat\2017\arm-eabi\lib\gnat\ravenscar-sfp-stm32f4\adalib\libgnarl.a(s-bbthre.o)
 .data.system__bb__threads__initialized
                0x20000468        0x1 C:\gnat\2017\arm-eabi\lib\gnat\ravenscar-sfp-stm32f4\adalib\libgnarl.a(s-bbthre.o)
                0x20000468                system__bb__threads__initialized
 .data          0x20000469        0x0 C:\gnat\2017\arm-eabi\lib\gnat\ravenscar-sfp-stm32f4\adalib\libgnarl.a(s-bbthqu.o)
 *fill*         0x20000469        0x3 
 .data.__gnat_running_thread_table
                0x2000046c        0x4 C:\gnat\2017\arm-eabi\lib\gnat\ravenscar-sfp-stm32f4\adalib\libgnarl.a(s-bbthqu.o)
                0x2000046c                __gnat_running_thread_table
 .data.first_thread_table
                0x20000470        0x4 C:\gnat\2017\arm-eabi\lib\gnat\ravenscar-sfp-stm32f4\adalib\libgnarl.a(s-bbthqu.o)
                0x20000470                first_thread_table
 .data.system__bb__threads__queues__alarms_table
                0x20000474        0x4 C:\gnat\2017\arm-eabi\lib\gnat\ravenscar-sfp-stm32f4\adalib\libgnarl.a(s-bbthqu.o)
                0x20000474                system__bb__threads__queues__alarms_table
 .data.system__bb__threads__queues__global_list
                0x20000478        0x4 C:\gnat\2017\arm-eabi\lib\gnat\ravenscar-sfp-stm32f4\adalib\libgnarl.a(s-bbthqu.o)
                0x20000478                system__bb__threads__queues__global_list
 .data          0x2000047c        0x0 C:\gnat\2017\arm-eabi\lib\gnat\ravenscar-sfp-stm32f4\adalib\libgnarl.a(s-bbprot.o)
 .data.system__bb__protection__wakeup_served_entry_callback
                0x2000047c        0x4 C:\gnat\2017\arm-eabi\lib\gnat\ravenscar-sfp-stm32f4\adalib\libgnarl.a(s-bbprot.o)
                0x2000047c                system__bb__protection__wakeup_served_entry_callback
 .data          0x20000480        0x0 C:\gnat\2017\arm-eabi\lib\gnat\ravenscar-sfp-stm32f4\adalib\libgnarl.a(a-sytaco.o)
 .data.ada__synchronous_task_control_E
                0x20000480        0x2 C:\gnat\2017\arm-eabi\lib\gnat\ravenscar-sfp-stm32f4\adalib\libgnarl.a(a-sytaco.o)
                0x20000480                ada__synchronous_task_control_E
 .data          0x20000482        0x0 C:\gnat\2017\arm-eabi\lib\gnat\ravenscar-sfp-stm32f4\adalib\libgnarl.a(a-retide.o)
 .data.ada__real_time__delays_E
                0x20000482        0x2 C:\gnat\2017\arm-eabi\lib\gnat\ravenscar-sfp-stm32f4\adalib\libgnarl.a(a-retide.o)
                0x20000482                ada__real_time__delays_E
 .data          0x20000484        0x0 C:\gnat\2017\arm-eabi\lib\gnat\ravenscar-sfp-stm32f4\adalib\libgnarl.a(a-reatim.o)
 .data.ada__real_time_E
                0x20000484        0x2 C:\gnat\2017\arm-eabi\lib\gnat\ravenscar-sfp-stm32f4\adalib\libgnarl.a(a-reatim.o)
                0x20000484                ada__real_time_E
 .data          0x20000486        0x0 C:\gnat\2017\arm-eabi\lib\gnat\ravenscar-sfp-stm32f4\adalib\libgnarl.a(handler.o)
 .data          0x20000486        0x0 C:\gnat\2017\arm-eabi\lib\gnat\ravenscar-sfp-stm32f4\adalib\libgnarl.a(s-bbinte.o)
 *fill*         0x20000486        0x2 
 .data.system__bb__interrupts__interrupt_being_handled
                0x20000488        0x4 C:\gnat\2017\arm-eabi\lib\gnat\ravenscar-sfp-stm32f4\adalib\libgnarl.a(s-bbinte.o)
                0x20000488                system__bb__interrupts__interrupt_being_handled
 .data          0x2000048c        0x0 C:\gnat\2017\arm-eabi\lib\gnat\ravenscar-sfp-stm32f4\adalib\libgnarl.a(s-bbbosu.o)
 .data          0x2000048c        0x0 C:\gnat\2017\arm-eabi\lib\gnat\ravenscar-sfp-stm32f4\adalib\libgnarl.a(s-bbtime.o)
 .data.system__bb__time__alarm_lock
                0x2000048c        0x2 C:\gnat\2017\arm-eabi\lib\gnat\ravenscar-sfp-stm32f4\adalib\libgnarl.a(s-bbtime.o)
                0x2000048c                system__bb__time__alarm_lock
 *fill*         0x2000048e        0x2 
 .data.system__bb__time__max_sleep
                0x20000490        0x8 C:\gnat\2017\arm-eabi\lib\gnat\ravenscar-sfp-stm32f4\adalib\libgnarl.a(s-bbtime.o)
                0x20000490                system__bb__time__max_sleep
 .data.system__bb__time__pending_alarm
                0x20000498        0x8 C:\gnat\2017\arm-eabi\lib\gnat\ravenscar-sfp-stm32f4\adalib\libgnarl.a(s-bbtime.o)
                0x20000498                system__bb__time__pending_alarm
 .data.system__bb__time__scheduling_event_hook
                0x200004a0        0x4 C:\gnat\2017\arm-eabi\lib\gnat\ravenscar-sfp-stm32f4\adalib\libgnarl.a(s-bbtime.o)
                0x200004a0                system__bb__time__scheduling_event_hook
 .data.system__bb__time__software_clock
                0x200004a4        0x8 C:\gnat\2017\arm-eabi\lib\gnat\ravenscar-sfp-stm32f4\adalib\libgnarl.a(s-bbtime.o)
                0x200004a4                system__bb__time__software_clock
 .data          0x200004ac        0x0 C:\gnat\2017\arm-eabi\lib\gnat\ravenscar-sfp-stm32f4\adalib\libgnarl.a(s-bbcppr.o)
 .data          0x200004ac        0x0 C:\gnat\2017\arm-eabi\lib\gnat\ravenscar-sfp-stm32f4\adalib\libgnat.a(start-rom.o)
 .data          0x200004ac        0x0 C:\gnat\2017\arm-eabi\lib\gnat\ravenscar-sfp-stm32f4\adalib\libgnat.a(start-common.o)
 .data          0x200004ac        0x0 C:\gnat\2017\arm-eabi\lib\gnat\ravenscar-sfp-stm32f4\adalib\libgnat.a(breakpoint_handler.o)
 .data          0x200004ac        0x0 C:\gnat\2017\arm-eabi\lib\gnat\ravenscar-sfp-stm32f4\adalib\libgnat.a(setup_pll.o)
 .data.setup_pll_E
                0x200004ac        0x2 C:\gnat\2017\arm-eabi\lib\gnat\ravenscar-sfp-stm32f4\adalib\libgnat.a(setup_pll.o)
                0x200004ac                setup_pll_E
 .data          0x200004ae        0x0 C:\gnat\2017\arm-eabi\lib\gnat\ravenscar-sfp-stm32f4\adalib\libgnat.a(s-macres.o)
 .data.system__machine_reset_E
                0x200004ae        0x2 C:\gnat\2017\arm-eabi\lib\gnat\ravenscar-sfp-stm32f4\adalib\libgnat.a(s-macres.o)
                0x200004ae                system__machine_reset_E
 .data          0x200004b0        0x0 C:\gnat\2017\arm-eabi\lib\gnat\ravenscar-sfp-stm32f4\adalib\libgnat.a(s-assert.o)
 .data.system__assertions_E
                0x200004b0        0x2 C:\gnat\2017\arm-eabi\lib\gnat\ravenscar-sfp-stm32f4\adalib\libgnat.a(s-assert.o)
                0x200004b0                system__assertions_E
 *fill*         0x200004b2        0x2 
 .data.system__assertions__assert_failure
                0x200004b4       0x18 C:\gnat\2017\arm-eabi\lib\gnat\ravenscar-sfp-stm32f4\adalib\libgnat.a(s-assert.o)
                0x200004b4                system__assertions__assert_failure
 .data          0x200004cc        0x0 C:\gnat\2017\arm-eabi\lib\gnat\ravenscar-sfp-stm32f4\adalib\libgnat.a(s-fatflt.o)
 .data.system__fat_flt_E
                0x200004cc        0x2 C:\gnat\2017\arm-eabi\lib\gnat\ravenscar-sfp-stm32f4\adalib\libgnat.a(s-fatflt.o)
                0x200004cc                system__fat_flt_E
 .data          0x200004ce        0x0 C:\gnat\2017\arm-eabi\lib\gnat\ravenscar-sfp-stm32f4\adalib\libgnat.a(s-memset.o)
 .data          0x200004ce        0x0 C:\gnat\2017\arm-eabi\lib\gnat\ravenscar-sfp-stm32f4\adalib\libgnat.a(s-memcom.o)
 .data.system__memory_compare_E
                0x200004ce        0x2 C:\gnat\2017\arm-eabi\lib\gnat\ravenscar-sfp-stm32f4\adalib\libgnat.a(s-memcom.o)
                0x200004ce                system__memory_compare_E
 .data          0x200004d0        0x0 C:\gnat\2017\arm-eabi\lib\gnat\ravenscar-sfp-stm32f4\adalib\libgnat.a(s-secsta.o)
 .data.system__secondary_stack_E
                0x200004d0        0x2 C:\gnat\2017\arm-eabi\lib\gnat\ravenscar-sfp-stm32f4\adalib\libgnat.a(s-secsta.o)
                0x200004d0                system__secondary_stack_E
 .data          0x200004d2        0x0 C:\gnat\2017\arm-eabi\lib\gnat\ravenscar-sfp-stm32f4\adalib\libgnat.a(s-bbmcpa.o)
 .data.system__bb__mcu_parameters_E
                0x200004d2        0x2 C:\gnat\2017\arm-eabi\lib\gnat\ravenscar-sfp-stm32f4\adalib\libgnat.a(s-bbmcpa.o)
                0x200004d2                system__bb__mcu_parameters_E
 .data          0x200004d4        0x0 c:/gnat/2017/bin/../lib/gcc/arm-eabi/6.3.1/armv7em/thumb/fpu/fpv4-sp-d16\libgcc.a(_arm_addsubdf3.o)
 .data          0x200004d4        0x0 c:/gnat/2017/bin/../lib/gcc/arm-eabi/6.3.1/armv7em/thumb/fpu/fpv4-sp-d16\libgcc.a(_arm_muldivdf3.o)
 .data          0x200004d4        0x0 c:/gnat/2017/bin/../lib/gcc/arm-eabi/6.3.1/armv7em/thumb/fpu/fpv4-sp-d16\libgcc.a(_arm_truncdfsf2.o)
 .data          0x200004d4        0x0 c:/gnat/2017/bin/../lib/gcc/arm-eabi/6.3.1/armv7em/thumb/fpu/fpv4-sp-d16\libgcc.a(_aeabi_ldivmod.o)
 .data          0x200004d4        0x0 c:/gnat/2017/bin/../lib/gcc/arm-eabi/6.3.1/armv7em/thumb/fpu/fpv4-sp-d16\libgcc.a(_aeabi_uldivmod.o)
 .data          0x200004d4        0x0 c:/gnat/2017/bin/../lib/gcc/arm-eabi/6.3.1/armv7em/thumb/fpu/fpv4-sp-d16\libgcc.a(_udivmoddi4.o)
 .data          0x200004d4        0x0 c:/gnat/2017/bin/../lib/gcc/arm-eabi/6.3.1/armv7em/thumb/fpu/fpv4-sp-d16\libgcc.a(_dvmd_tls.o)
                0x200004d4                . = ALIGN (0x4)
                0x200004d4                __data_end = .
                0x00000135                __data_words = ((__data_end - __data_start) >> 0x2)
                0x0800b788                __ccmdata_load = (__rom_end + (__data_words << 0x2))

.igot.plt       0x200004d4        0x0 load address 0x0800b788
 .igot.plt      0x200004d4        0x0 generator.o

.ccmdata        0x10000000        0x0 load address 0x0800b788
                0x10000000                __ccmdata_start = .
 *(.ccmdata .ccmdata.*)
                0x10000000                . = ALIGN (0x4)
                0x10000000                __ccmdata_end = .
                0x00000000                __ccmdata_words = ((__ccmdata_end - __ccmdata_start) >> 0x2)

.bss            0x200004d8     0xb108 load address 0x0800b790
                0x200004d8                . = ALIGN (0x8)
                0x200004d8                __bss_start = .
 *(.bss .bss.*)
 .bss           0x200004d8        0x0 generator.o
 .bss           0x200004d8        0x0 b__generator.o
 .bss           0x200004d8        0x0 C:\Users\u6013763\Documents\COMP4330Assi1\Objects\anu_base_board.o
 .bss           0x200004d8        0x0 C:\Users\u6013763\Documents\COMP4330Assi1\Objects\discovery_board.o
 .bss           0x200004d8        0x0 C:\Users\u6013763\Documents\COMP4330Assi1\Objects\stm32f4.o
 .bss           0x200004d8        0x0 C:\Users\u6013763\Documents\COMP4330Assi1\Objects\stm32f4-general_purpose_ios.o
 .bss           0x200004d8        0x0 C:\Users\u6013763\Documents\COMP4330Assi1\Objects\discovery_board-config.o
 .bss           0x200004d8       0x10 C:\Users\u6013763\Documents\COMP4330Assi1\Objects\stm32f4-general_purpose_ios-ops.o
                0x200004d8                stm32f4__general_purpose_ios__ops__atomic_switch
 .bss           0x200004e8        0x0 C:\Users\u6013763\Documents\COMP4330Assi1\Objects\stm32f4-interrupts_and_events.o
 .bss           0x200004e8        0x0 C:\Users\u6013763\Documents\COMP4330Assi1\Objects\stm32f4-interrupts_and_events-ops.o
 .bss           0x200004e8        0x0 C:\Users\u6013763\Documents\COMP4330Assi1\Objects\stm32f4-reset_and_clock_control.o
 .bss           0x200004e8        0x0 C:\Users\u6013763\Documents\COMP4330Assi1\Objects\stm32f4-system_configuration_controller.o
 .bss           0x200004e8        0x0 C:\Users\u6013763\Documents\COMP4330Assi1\Objects\stm32f4-system_configuration_controller-ops.o
 .bss           0x200004e8        0x0 C:\Users\u6013763\Documents\COMP4330Assi1\Objects\stm32f4-timers.o
 .bss           0x200004e8        0x0 C:\Users\u6013763\Documents\COMP4330Assi1\Objects\stm32f4-reset_and_clock_control-ops.o
 .bss           0x200004e8        0x0 C:\Users\u6013763\Documents\COMP4330Assi1\Objects\led_handling.o
 .bss           0x200004e8        0x0 C:\Users\u6013763\Documents\COMP4330Assi1\Objects\discovery_board-led_interface.o
 .bss           0x200004e8        0x0 C:\Users\u6013763\Documents\COMP4330Assi1\Objects\last_chance_handler.o
 .bss           0x200004e8        0x0 C:\Users\u6013763\Documents\COMP4330Assi1\Objects\stm32f4-usart.o
 .bss           0x200004e8        0x0 C:\Users\u6013763\Documents\COMP4330Assi1\Objects\anu_base_board-config.o
 .bss           0x200004e8        0x0 C:\Users\u6013763\Documents\COMP4330Assi1\Objects\anu_base_board-com_interface.o
 .bss           0x200004e8        0x0 C:\Users\u6013763\Documents\COMP4330Assi1\Objects\anu_base_board-led_interface.o
 .bss           0x200004e8     0x65d8 C:\Users\u6013763\Documents\COMP4330Assi1\Objects\generator_controllers.o
 .bss           0x20006ac0        0x0 C:\gnat\2017\arm-eabi\lib\gnat\ravenscar-sfp-stm32f4\adalib\libgnarl.a(s-tposen.o)
 .bss           0x20006ac0        0x0 C:\gnat\2017\arm-eabi\lib\gnat\ravenscar-sfp-stm32f4\adalib\libgnarl.a(s-tpobmu.o)
 .bss.system__tasking__protected_objects__multiprocessors__served_entry_call
                0x20006ac0        0x8 C:\gnat\2017\arm-eabi\lib\gnat\ravenscar-sfp-stm32f4\adalib\libgnarl.a(s-tpobmu.o)
 .bss           0x20006ac8        0x0 C:\gnat\2017\arm-eabi\lib\gnat\ravenscar-sfp-stm32f4\adalib\libgnarl.a(s-taskin.o)
 .bss.system__tasking__environment_task
                0x20006ac8       0xb8 C:\gnat\2017\arm-eabi\lib\gnat\ravenscar-sfp-stm32f4\adalib\libgnarl.a(s-taskin.o)
 .bss.system__tasking__secondary_stack
                0x20006b80     0x2800 C:\gnat\2017\arm-eabi\lib\gnat\ravenscar-sfp-stm32f4\adalib\libgnarl.a(s-taskin.o)
 .bss           0x20009380        0x0 C:\gnat\2017\arm-eabi\lib\gnat\ravenscar-sfp-stm32f4\adalib\libgnarl.a(s-tasdeb.o)
 .bss           0x20009380        0x0 C:\gnat\2017\arm-eabi\lib\gnat\ravenscar-sfp-stm32f4\adalib\libgnarl.a(s-tarest.o)
 .bss           0x20009380        0x0 C:\gnat\2017\arm-eabi\lib\gnat\ravenscar-sfp-stm32f4\adalib\libgnarl.a(s-taprop.o)
 .bss.__gnat_idle_stack_table
                0x20009380        0x4 C:\gnat\2017\arm-eabi\lib\gnat\ravenscar-sfp-stm32f4\adalib\libgnarl.a(s-taprop.o)
                0x20009380                __gnat_idle_stack_table
 *fill*         0x20009384        0x4 
 .bss.system__task_primitives__operations__idle_stacks
                0x20009388      0x800 C:\gnat\2017\arm-eabi\lib\gnat\ravenscar-sfp-stm32f4\adalib\libgnarl.a(s-taprop.o)
                0x20009388                system__task_primitives__operations__idle_stacks
 .bss.system__task_primitives__operations__idle_tasks
                0x20009b88       0xb8 C:\gnat\2017\arm-eabi\lib\gnat\ravenscar-sfp-stm32f4\adalib\libgnarl.a(s-taprop.o)
                0x20009b88                system__task_primitives__operations__idle_tasks
 .bss           0x20009c40        0x0 C:\gnat\2017\arm-eabi\lib\gnat\ravenscar-sfp-stm32f4\adalib\libgnarl.a(s-taprob.o)
 .bss           0x20009c40        0x0 C:\gnat\2017\arm-eabi\lib\gnat\ravenscar-sfp-stm32f4\adalib\libgnarl.a(s-parame.o)
 .bss           0x20009c40        0x0 C:\gnat\2017\arm-eabi\lib\gnat\ravenscar-sfp-stm32f4\adalib\libgnarl.a(s-interr.o)
 .bss           0x20009c40        0x0 C:\gnat\2017\arm-eabi\lib\gnat\ravenscar-sfp-stm32f4\adalib\libgnarl.a(s-bcprmu.o)
 .bss           0x20009c40        0x0 C:\gnat\2017\arm-eabi\lib\gnat\ravenscar-sfp-stm32f4\adalib\libgnarl.a(s-bbtiev.o)
 .bss           0x20009c40        0x0 C:\gnat\2017\arm-eabi\lib\gnat\ravenscar-sfp-stm32f4\adalib\libgnarl.a(s-bbthre.o)
 .bss           0x20009c40        0x0 C:\gnat\2017\arm-eabi\lib\gnat\ravenscar-sfp-stm32f4\adalib\libgnarl.a(s-bbthqu.o)
 .bss           0x20009c40        0x0 C:\gnat\2017\arm-eabi\lib\gnat\ravenscar-sfp-stm32f4\adalib\libgnarl.a(s-bbprot.o)
 .bss           0x20009c40        0x0 C:\gnat\2017\arm-eabi\lib\gnat\ravenscar-sfp-stm32f4\adalib\libgnarl.a(a-sytaco.o)
 .bss           0x20009c40        0x0 C:\gnat\2017\arm-eabi\lib\gnat\ravenscar-sfp-stm32f4\adalib\libgnarl.a(a-retide.o)
 .bss           0x20009c40        0x0 C:\gnat\2017\arm-eabi\lib\gnat\ravenscar-sfp-stm32f4\adalib\libgnarl.a(a-reatim.o)
 .bss           0x20009c40        0x0 C:\gnat\2017\arm-eabi\lib\gnat\ravenscar-sfp-stm32f4\adalib\libgnarl.a(handler.o)
 .bss           0x20009c40        0x0 C:\gnat\2017\arm-eabi\lib\gnat\ravenscar-sfp-stm32f4\adalib\libgnarl.a(s-bbinte.o)
 .bss.interrupt_stack_table
                0x20009c40        0x4 C:\gnat\2017\arm-eabi\lib\gnat\ravenscar-sfp-stm32f4\adalib\libgnarl.a(s-bbinte.o)
                0x20009c40                interrupt_stack_table
 .bss.system__bb__interrupts__interrupt_handlers_table
                0x20009c44      0x14c C:\gnat\2017\arm-eabi\lib\gnat\ravenscar-sfp-stm32f4\adalib\libgnarl.a(s-bbinte.o)
                0x20009c44                system__bb__interrupts__interrupt_handlers_table
 .bss           0x20009d90        0x0 C:\gnat\2017\arm-eabi\lib\gnat\ravenscar-sfp-stm32f4\adalib\libgnarl.a(s-bbbosu.o)
 .bss.__gnat_alarm_time
                0x20009d90        0x4 C:\gnat\2017\arm-eabi\lib\gnat\ravenscar-sfp-stm32f4\adalib\libgnarl.a(s-bbbosu.o)
                0x20009d90                __gnat_alarm_time
 .bss.system__bb__board_support__next_tick_time
                0x20009d94        0x4 C:\gnat\2017\arm-eabi\lib\gnat\ravenscar-sfp-stm32f4\adalib\libgnarl.a(s-bbbosu.o)
                0x20009d94                system__bb__board_support__next_tick_time
 .bss           0x20009d98        0x0 C:\gnat\2017\arm-eabi\lib\gnat\ravenscar-sfp-stm32f4\adalib\libgnarl.a(s-bbtime.o)
 .bss           0x20009d98        0x0 C:\gnat\2017\arm-eabi\lib\gnat\ravenscar-sfp-stm32f4\adalib\libgnarl.a(s-bbcppr.o)
 .bss.__gnat_bb_exception_handlers
                0x20009d98       0x44 C:\gnat\2017\arm-eabi\lib\gnat\ravenscar-sfp-stm32f4\adalib\libgnarl.a(s-bbcppr.o)
                0x20009d98                __gnat_bb_exception_handlers
 .bss           0x20009ddc        0x0 C:\gnat\2017\arm-eabi\lib\gnat\ravenscar-sfp-stm32f4\adalib\libgnat.a(start-rom.o)
 .bss           0x20009ddc        0x0 C:\gnat\2017\arm-eabi\lib\gnat\ravenscar-sfp-stm32f4\adalib\libgnat.a(start-common.o)
 .bss           0x20009ddc        0x0 C:\gnat\2017\arm-eabi\lib\gnat\ravenscar-sfp-stm32f4\adalib\libgnat.a(breakpoint_handler.o)
 .bss           0x20009ddc        0x0 C:\gnat\2017\arm-eabi\lib\gnat\ravenscar-sfp-stm32f4\adalib\libgnat.a(setup_pll.o)
 .bss           0x20009ddc        0x0 C:\gnat\2017\arm-eabi\lib\gnat\ravenscar-sfp-stm32f4\adalib\libgnat.a(s-macres.o)
 .bss           0x20009ddc        0x0 C:\gnat\2017\arm-eabi\lib\gnat\ravenscar-sfp-stm32f4\adalib\libgnat.a(s-assert.o)
 .bss           0x20009ddc        0x0 C:\gnat\2017\arm-eabi\lib\gnat\ravenscar-sfp-stm32f4\adalib\libgnat.a(s-fatflt.o)
 .bss           0x20009ddc        0x0 C:\gnat\2017\arm-eabi\lib\gnat\ravenscar-sfp-stm32f4\adalib\libgnat.a(s-memset.o)
 .bss           0x20009ddc        0x0 C:\gnat\2017\arm-eabi\lib\gnat\ravenscar-sfp-stm32f4\adalib\libgnat.a(s-memcom.o)
 .bss           0x20009ddc        0x0 C:\gnat\2017\arm-eabi\lib\gnat\ravenscar-sfp-stm32f4\adalib\libgnat.a(s-secsta.o)
 .bss.system__secondary_stack__ss_pool
                0x20009ddc        0x4 C:\gnat\2017\arm-eabi\lib\gnat\ravenscar-sfp-stm32f4\adalib\libgnat.a(s-secsta.o)
                0x20009ddc                system__secondary_stack__ss_pool
 .bss           0x20009de0        0x0 C:\gnat\2017\arm-eabi\lib\gnat\ravenscar-sfp-stm32f4\adalib\libgnat.a(s-bbmcpa.o)
 .bss           0x20009de0        0x0 c:/gnat/2017/bin/../lib/gcc/arm-eabi/6.3.1/armv7em/thumb/fpu/fpv4-sp-d16\libgcc.a(_arm_addsubdf3.o)
 .bss           0x20009de0        0x0 c:/gnat/2017/bin/../lib/gcc/arm-eabi/6.3.1/armv7em/thumb/fpu/fpv4-sp-d16\libgcc.a(_arm_muldivdf3.o)
 .bss           0x20009de0        0x0 c:/gnat/2017/bin/../lib/gcc/arm-eabi/6.3.1/armv7em/thumb/fpu/fpv4-sp-d16\libgcc.a(_arm_truncdfsf2.o)
 .bss           0x20009de0        0x0 c:/gnat/2017/bin/../lib/gcc/arm-eabi/6.3.1/armv7em/thumb/fpu/fpv4-sp-d16\libgcc.a(_aeabi_ldivmod.o)
 .bss           0x20009de0        0x0 c:/gnat/2017/bin/../lib/gcc/arm-eabi/6.3.1/armv7em/thumb/fpu/fpv4-sp-d16\libgcc.a(_aeabi_uldivmod.o)
 .bss           0x20009de0        0x0 c:/gnat/2017/bin/../lib/gcc/arm-eabi/6.3.1/armv7em/thumb/fpu/fpv4-sp-d16\libgcc.a(_udivmoddi4.o)
 .bss           0x20009de0        0x0 c:/gnat/2017/bin/../lib/gcc/arm-eabi/6.3.1/armv7em/thumb/fpu/fpv4-sp-d16\libgcc.a(_dvmd_tls.o)
 *(COMMON)
                0x20009de0                . = ALIGN (0x8)
                0x20009de0                __bss_end = .
                0x20009de0                __interrupt_stack_start = .
 *(.interrupt_stacks)
 .interrupt_stacks
                0x20009de0      0x800 C:\gnat\2017\arm-eabi\lib\gnat\ravenscar-sfp-stm32f4\adalib\libgnarl.a(s-bbinte.o)
                0x20009de0                system__bb__interrupts__interrupt_stacks
                0x2000a5e0                . = ALIGN (0x8)
                0x2000a5e0                __interrupt_stack_end = .
                0x2000a5e0                __stack_start = .
                0x2000b5e0                . = (. + DEFINED (__stack_size)?__stack_size:_DEFAULT_STACK_SIZE)
 *fill*         0x2000a5e0     0x1000 
                0x2000b5e0                . = ALIGN (0x8)
                0x2000b5e0                __stack_end = .
                0x2000b5e0                _end = .
                0x2000b5e0                __heap_start = .
                0x20020000                __heap_end = (ORIGIN (sram_bs) + LENGTH (sram_bs))
                0x00002642                __bss_words = ((__bss_end - __bss_start) >> 0x2)

.debug
 *(.debug)

.line
 *(.line)

.debug_srcinfo
 *(.debug_srcinfo)

.debug_sfnames
 *(.debug_sfnames)

.debug_aranges  0x00000000      0x3f8
 *(.debug_aranges)
 .debug_aranges
                0x00000000       0x20 generator.o
 .debug_aranges
                0x00000020       0x28 b__generator.o
 .debug_aranges
                0x00000048       0x18 C:\Users\u6013763\Documents\COMP4330Assi1\Objects\anu_base_board.o
 .debug_aranges
                0x00000060       0x18 C:\Users\u6013763\Documents\COMP4330Assi1\Objects\stm32f4.o
 .debug_aranges
                0x00000078       0x20 C:\Users\u6013763\Documents\COMP4330Assi1\Objects\stm32f4-general_purpose_ios.o
 .debug_aranges
                0x00000098       0x18 C:\Users\u6013763\Documents\COMP4330Assi1\Objects\discovery_board-config.o
 .debug_aranges
                0x000000b0       0x38 C:\Users\u6013763\Documents\COMP4330Assi1\Objects\stm32f4-general_purpose_ios-ops.o
 .debug_aranges
                0x000000e8       0x18 C:\Users\u6013763\Documents\COMP4330Assi1\Objects\stm32f4-interrupts_and_events.o
 .debug_aranges
                0x00000100       0x20 C:\Users\u6013763\Documents\COMP4330Assi1\Objects\stm32f4-interrupts_and_events-ops.o
 .debug_aranges
                0x00000120       0x18 C:\Users\u6013763\Documents\COMP4330Assi1\Objects\stm32f4-reset_and_clock_control.o
 .debug_aranges
                0x00000138       0x18 C:\Users\u6013763\Documents\COMP4330Assi1\Objects\stm32f4-system_configuration_controller.o
 .debug_aranges
                0x00000150       0x20 C:\Users\u6013763\Documents\COMP4330Assi1\Objects\stm32f4-system_configuration_controller-ops.o
 .debug_aranges
                0x00000170       0x20 C:\Users\u6013763\Documents\COMP4330Assi1\Objects\stm32f4-timers.o
 .debug_aranges
                0x00000190       0x20 C:\Users\u6013763\Documents\COMP4330Assi1\Objects\stm32f4-reset_and_clock_control-ops.o
 .debug_aranges
                0x000001b0       0x20 C:\Users\u6013763\Documents\COMP4330Assi1\Objects\led_handling.o
 .debug_aranges
                0x000001d0       0x20 C:\Users\u6013763\Documents\COMP4330Assi1\Objects\discovery_board-led_interface.o
 .debug_aranges
                0x000001f0       0x20 C:\Users\u6013763\Documents\COMP4330Assi1\Objects\last_chance_handler.o
 .debug_aranges
                0x00000210       0x20 C:\Users\u6013763\Documents\COMP4330Assi1\Objects\stm32f4-usart.o
 .debug_aranges
                0x00000230       0x18 C:\Users\u6013763\Documents\COMP4330Assi1\Objects\anu_base_board-config.o
 .debug_aranges
                0x00000248       0x50 C:\Users\u6013763\Documents\COMP4330Assi1\Objects\anu_base_board-com_interface.o
 .debug_aranges
                0x00000298       0x20 C:\Users\u6013763\Documents\COMP4330Assi1\Objects\anu_base_board-led_interface.o
 .debug_aranges
                0x000002b8       0x20 C:\Users\u6013763\Documents\COMP4330Assi1\Objects\generator_controllers.o
 .debug_aranges
                0x000002d8       0x20 C:\gnat\2017\arm-eabi\lib\gnat\ravenscar-sfp-stm32f4\adalib\libgnarl.a(s-tasdeb.o)
 .debug_aranges
                0x000002f8       0x20 C:\gnat\2017\arm-eabi\lib\gnat\ravenscar-sfp-stm32f4\adalib\libgnat.a(s-assert.o)
 .debug_aranges
                0x00000318       0x20 c:/gnat/2017/bin/../lib/gcc/arm-eabi/6.3.1/armv7em/thumb/fpu/fpv4-sp-d16\libgcc.a(_arm_addsubdf3.o)
 .debug_aranges
                0x00000338       0x20 c:/gnat/2017/bin/../lib/gcc/arm-eabi/6.3.1/armv7em/thumb/fpu/fpv4-sp-d16\libgcc.a(_arm_muldivdf3.o)
 .debug_aranges
                0x00000358       0x20 c:/gnat/2017/bin/../lib/gcc/arm-eabi/6.3.1/armv7em/thumb/fpu/fpv4-sp-d16\libgcc.a(_arm_truncdfsf2.o)
 .debug_aranges
                0x00000378       0x20 c:/gnat/2017/bin/../lib/gcc/arm-eabi/6.3.1/armv7em/thumb/fpu/fpv4-sp-d16\libgcc.a(_aeabi_ldivmod.o)
 .debug_aranges
                0x00000398       0x20 c:/gnat/2017/bin/../lib/gcc/arm-eabi/6.3.1/armv7em/thumb/fpu/fpv4-sp-d16\libgcc.a(_aeabi_uldivmod.o)
 .debug_aranges
                0x000003b8       0x20 c:/gnat/2017/bin/../lib/gcc/arm-eabi/6.3.1/armv7em/thumb/fpu/fpv4-sp-d16\libgcc.a(_udivmoddi4.o)
 .debug_aranges
                0x000003d8       0x20 c:/gnat/2017/bin/../lib/gcc/arm-eabi/6.3.1/armv7em/thumb/fpu/fpv4-sp-d16\libgcc.a(_dvmd_tls.o)

.debug_pubnames
 *(.debug_pubnames)

.debug_info     0x00000000    0x11369
 *(.debug_info .gnu.linkonce.wi.*)
 .debug_info    0x00000000      0x33d generator.o
 .debug_info    0x0000033d      0x209 b__generator.o
 .debug_info    0x00000546       0xe4 C:\Users\u6013763\Documents\COMP4330Assi1\Objects\anu_base_board.o
 .debug_info    0x0000062a      0x108 C:\Users\u6013763\Documents\COMP4330Assi1\Objects\stm32f4.o
 .debug_info    0x00000732      0x942 C:\Users\u6013763\Documents\COMP4330Assi1\Objects\stm32f4-general_purpose_ios.o
 .debug_info    0x00001074      0x11d C:\Users\u6013763\Documents\COMP4330Assi1\Objects\discovery_board-config.o
 .debug_info    0x00001191     0x24c0 C:\Users\u6013763\Documents\COMP4330Assi1\Objects\stm32f4-general_purpose_ios-ops.o
 .debug_info    0x00003651       0x3d C:\Users\u6013763\Documents\COMP4330Assi1\Objects\stm32f4-interrupts_and_events.o
 .debug_info    0x0000368e      0x26c C:\Users\u6013763\Documents\COMP4330Assi1\Objects\stm32f4-interrupts_and_events-ops.o
 .debug_info    0x000038fa       0xa6 C:\Users\u6013763\Documents\COMP4330Assi1\Objects\stm32f4-reset_and_clock_control.o
 .debug_info    0x000039a0       0x4b C:\Users\u6013763\Documents\COMP4330Assi1\Objects\stm32f4-system_configuration_controller.o
 .debug_info    0x000039eb      0x321 C:\Users\u6013763\Documents\COMP4330Assi1\Objects\stm32f4-system_configuration_controller-ops.o
 .debug_info    0x00003d0c     0x3183 C:\Users\u6013763\Documents\COMP4330Assi1\Objects\stm32f4-timers.o
 .debug_info    0x00006e8f     0x1a96 C:\Users\u6013763\Documents\COMP4330Assi1\Objects\stm32f4-reset_and_clock_control-ops.o
 .debug_info    0x00008925      0xe04 C:\Users\u6013763\Documents\COMP4330Assi1\Objects\led_handling.o
 .debug_info    0x00009729      0xbdb C:\Users\u6013763\Documents\COMP4330Assi1\Objects\discovery_board-led_interface.o
 .debug_info    0x0000a304      0x1dd C:\Users\u6013763\Documents\COMP4330Assi1\Objects\last_chance_handler.o
 .debug_info    0x0000a4e1      0xe8a C:\Users\u6013763\Documents\COMP4330Assi1\Objects\stm32f4-usart.o
 .debug_info    0x0000b36b      0x217 C:\Users\u6013763\Documents\COMP4330Assi1\Objects\anu_base_board-config.o
 .debug_info    0x0000b582     0x162f C:\Users\u6013763\Documents\COMP4330Assi1\Objects\anu_base_board-com_interface.o
 .debug_info    0x0000cbb1      0xdaa C:\Users\u6013763\Documents\COMP4330Assi1\Objects\anu_base_board-led_interface.o
 .debug_info    0x0000d95b     0x2315 C:\Users\u6013763\Documents\COMP4330Assi1\Objects\generator_controllers.o
 .debug_info    0x0000fc70      0x4ca C:\gnat\2017\arm-eabi\lib\gnat\ravenscar-sfp-stm32f4\adalib\libgnarl.a(s-tasdeb.o)
 .debug_info    0x0001013a      0x17e C:\gnat\2017\arm-eabi\lib\gnat\ravenscar-sfp-stm32f4\adalib\libgnat.a(s-assert.o)
 .debug_info    0x000102b8       0xc9 c:/gnat/2017/bin/../lib/gcc/arm-eabi/6.3.1/armv7em/thumb/fpu/fpv4-sp-d16\libgcc.a(_arm_addsubdf3.o)
 .debug_info    0x00010381       0xc9 c:/gnat/2017/bin/../lib/gcc/arm-eabi/6.3.1/armv7em/thumb/fpu/fpv4-sp-d16\libgcc.a(_arm_muldivdf3.o)
 .debug_info    0x0001044a       0xc9 c:/gnat/2017/bin/../lib/gcc/arm-eabi/6.3.1/armv7em/thumb/fpu/fpv4-sp-d16\libgcc.a(_arm_truncdfsf2.o)
 .debug_info    0x00010513       0xc4 c:/gnat/2017/bin/../lib/gcc/arm-eabi/6.3.1/armv7em/thumb/fpu/fpv4-sp-d16\libgcc.a(_aeabi_ldivmod.o)
 .debug_info    0x000105d7       0xc4 c:/gnat/2017/bin/../lib/gcc/arm-eabi/6.3.1/armv7em/thumb/fpu/fpv4-sp-d16\libgcc.a(_aeabi_uldivmod.o)
 .debug_info    0x0001069b      0xc06 c:/gnat/2017/bin/../lib/gcc/arm-eabi/6.3.1/armv7em/thumb/fpu/fpv4-sp-d16\libgcc.a(_udivmoddi4.o)
 .debug_info    0x000112a1       0xc8 c:/gnat/2017/bin/../lib/gcc/arm-eabi/6.3.1/armv7em/thumb/fpu/fpv4-sp-d16\libgcc.a(_dvmd_tls.o)

.debug_abbrev   0x00000000     0x2759
 *(.debug_abbrev)
 .debug_abbrev  0x00000000      0x1bb generator.o
 .debug_abbrev  0x000001bb       0xd2 b__generator.o
 .debug_abbrev  0x0000028d       0x4d C:\Users\u6013763\Documents\COMP4330Assi1\Objects\anu_base_board.o
 .debug_abbrev  0x000002da       0x19 C:\Users\u6013763\Documents\COMP4330Assi1\Objects\stm32f4.o
 .debug_abbrev  0x000002f3      0x1c7 C:\Users\u6013763\Documents\COMP4330Assi1\Objects\stm32f4-general_purpose_ios.o
 .debug_abbrev  0x000004ba       0xbb C:\Users\u6013763\Documents\COMP4330Assi1\Objects\discovery_board-config.o
 .debug_abbrev  0x00000575      0x3f2 C:\Users\u6013763\Documents\COMP4330Assi1\Objects\stm32f4-general_purpose_ios-ops.o
 .debug_abbrev  0x00000967       0x26 C:\Users\u6013763\Documents\COMP4330Assi1\Objects\stm32f4-interrupts_and_events.o
 .debug_abbrev  0x0000098d       0xbd C:\Users\u6013763\Documents\COMP4330Assi1\Objects\stm32f4-interrupts_and_events-ops.o
 .debug_abbrev  0x00000a4a       0x26 C:\Users\u6013763\Documents\COMP4330Assi1\Objects\stm32f4-reset_and_clock_control.o
 .debug_abbrev  0x00000a70       0x19 C:\Users\u6013763\Documents\COMP4330Assi1\Objects\stm32f4-system_configuration_controller.o
 .debug_abbrev  0x00000a89       0xcf C:\Users\u6013763\Documents\COMP4330Assi1\Objects\stm32f4-system_configuration_controller-ops.o
 .debug_abbrev  0x00000b58      0x1cf C:\Users\u6013763\Documents\COMP4330Assi1\Objects\stm32f4-timers.o
 .debug_abbrev  0x00000d27      0x168 C:\Users\u6013763\Documents\COMP4330Assi1\Objects\stm32f4-reset_and_clock_control-ops.o
 .debug_abbrev  0x00000e8f      0x2bf C:\Users\u6013763\Documents\COMP4330Assi1\Objects\led_handling.o
 .debug_abbrev  0x0000114e      0x2f2 C:\Users\u6013763\Documents\COMP4330Assi1\Objects\discovery_board-led_interface.o
 .debug_abbrev  0x00001440      0x162 C:\Users\u6013763\Documents\COMP4330Assi1\Objects\last_chance_handler.o
 .debug_abbrev  0x000015a2      0x206 C:\Users\u6013763\Documents\COMP4330Assi1\Objects\stm32f4-usart.o
 .debug_abbrev  0x000017a8       0xeb C:\Users\u6013763\Documents\COMP4330Assi1\Objects\anu_base_board-config.o
 .debug_abbrev  0x00001893      0x325 C:\Users\u6013763\Documents\COMP4330Assi1\Objects\anu_base_board-com_interface.o
 .debug_abbrev  0x00001bb8      0x306 C:\Users\u6013763\Documents\COMP4330Assi1\Objects\anu_base_board-led_interface.o
 .debug_abbrev  0x00001ebe      0x43f C:\Users\u6013763\Documents\COMP4330Assi1\Objects\generator_controllers.o
 .debug_abbrev  0x000022fd      0x161 C:\gnat\2017\arm-eabi\lib\gnat\ravenscar-sfp-stm32f4\adalib\libgnarl.a(s-tasdeb.o)
 .debug_abbrev  0x0000245e       0xf3 C:\gnat\2017\arm-eabi\lib\gnat\ravenscar-sfp-stm32f4\adalib\libgnat.a(s-assert.o)
 .debug_abbrev  0x00002551       0x14 c:/gnat/2017/bin/../lib/gcc/arm-eabi/6.3.1/armv7em/thumb/fpu/fpv4-sp-d16\libgcc.a(_arm_addsubdf3.o)
 .debug_abbrev  0x00002565       0x14 c:/gnat/2017/bin/../lib/gcc/arm-eabi/6.3.1/armv7em/thumb/fpu/fpv4-sp-d16\libgcc.a(_arm_muldivdf3.o)
 .debug_abbrev  0x00002579       0x14 c:/gnat/2017/bin/../lib/gcc/arm-eabi/6.3.1/armv7em/thumb/fpu/fpv4-sp-d16\libgcc.a(_arm_truncdfsf2.o)
 .debug_abbrev  0x0000258d       0x14 c:/gnat/2017/bin/../lib/gcc/arm-eabi/6.3.1/armv7em/thumb/fpu/fpv4-sp-d16\libgcc.a(_aeabi_ldivmod.o)
 .debug_abbrev  0x000025a1       0x14 c:/gnat/2017/bin/../lib/gcc/arm-eabi/6.3.1/armv7em/thumb/fpu/fpv4-sp-d16\libgcc.a(_aeabi_uldivmod.o)
 .debug_abbrev  0x000025b5      0x190 c:/gnat/2017/bin/../lib/gcc/arm-eabi/6.3.1/armv7em/thumb/fpu/fpv4-sp-d16\libgcc.a(_udivmoddi4.o)
 .debug_abbrev  0x00002745       0x14 c:/gnat/2017/bin/../lib/gcc/arm-eabi/6.3.1/armv7em/thumb/fpu/fpv4-sp-d16\libgcc.a(_dvmd_tls.o)

.debug_line     0x00000000     0x57c2
 *(.debug_line)
 .debug_line    0x00000000      0x272 generator.o
 .debug_line    0x00000272       0x97 b__generator.o
 .debug_line    0x00000309       0x74 C:\Users\u6013763\Documents\COMP4330Assi1\Objects\anu_base_board.o
 .debug_line    0x0000037d        0x0 C:\Users\u6013763\Documents\COMP4330Assi1\Objects\discovery_board.o
 .debug_line    0x0000037d       0x1d C:\Users\u6013763\Documents\COMP4330Assi1\Objects\stm32f4.o
 .debug_line    0x0000039a       0xad C:\Users\u6013763\Documents\COMP4330Assi1\Objects\stm32f4-general_purpose_ios.o
 .debug_line    0x00000447       0xf1 C:\Users\u6013763\Documents\COMP4330Assi1\Objects\discovery_board-config.o
 .debug_line    0x00000538      0x956 C:\Users\u6013763\Documents\COMP4330Assi1\Objects\stm32f4-general_purpose_ios-ops.o
 .debug_line    0x00000e8e       0x1d C:\Users\u6013763\Documents\COMP4330Assi1\Objects\stm32f4-interrupts_and_events.o
 .debug_line    0x00000eab      0x14c C:\Users\u6013763\Documents\COMP4330Assi1\Objects\stm32f4-interrupts_and_events-ops.o
 .debug_line    0x00000ff7       0x1d C:\Users\u6013763\Documents\COMP4330Assi1\Objects\stm32f4-reset_and_clock_control.o
 .debug_line    0x00001014       0x1d C:\Users\u6013763\Documents\COMP4330Assi1\Objects\stm32f4-system_configuration_controller.o
 .debug_line    0x00001031      0x275 C:\Users\u6013763\Documents\COMP4330Assi1\Objects\stm32f4-system_configuration_controller-ops.o
 .debug_line    0x000012a6      0x112 C:\Users\u6013763\Documents\COMP4330Assi1\Objects\stm32f4-timers.o
 .debug_line    0x000013b8     0x1c14 C:\Users\u6013763\Documents\COMP4330Assi1\Objects\stm32f4-reset_and_clock_control-ops.o
 .debug_line    0x00002fcc      0x36c C:\Users\u6013763\Documents\COMP4330Assi1\Objects\led_handling.o
 .debug_line    0x00003338      0x351 C:\Users\u6013763\Documents\COMP4330Assi1\Objects\discovery_board-led_interface.o
 .debug_line    0x00003689      0x1c1 C:\Users\u6013763\Documents\COMP4330Assi1\Objects\last_chance_handler.o
 .debug_line    0x0000384a       0xa9 C:\Users\u6013763\Documents\COMP4330Assi1\Objects\stm32f4-usart.o
 .debug_line    0x000038f3       0xee C:\Users\u6013763\Documents\COMP4330Assi1\Objects\anu_base_board-config.o
 .debug_line    0x000039e1      0x704 C:\Users\u6013763\Documents\COMP4330Assi1\Objects\anu_base_board-com_interface.o
 .debug_line    0x000040e5      0x36a C:\Users\u6013763\Documents\COMP4330Assi1\Objects\anu_base_board-led_interface.o
 .debug_line    0x0000444f      0x8c8 C:\Users\u6013763\Documents\COMP4330Assi1\Objects\generator_controllers.o
 .debug_line    0x00004d17      0x1f8 C:\gnat\2017\arm-eabi\lib\gnat\ravenscar-sfp-stm32f4\adalib\libgnarl.a(s-tasdeb.o)
 .debug_line    0x00004f0f      0x13e C:\gnat\2017\arm-eabi\lib\gnat\ravenscar-sfp-stm32f4\adalib\libgnat.a(s-assert.o)
 .debug_line    0x0000504d      0x189 c:/gnat/2017/bin/../lib/gcc/arm-eabi/6.3.1/armv7em/thumb/fpu/fpv4-sp-d16\libgcc.a(_arm_addsubdf3.o)
 .debug_line    0x000051d6      0x1a5 c:/gnat/2017/bin/../lib/gcc/arm-eabi/6.3.1/armv7em/thumb/fpu/fpv4-sp-d16\libgcc.a(_arm_muldivdf3.o)
 .debug_line    0x0000537b       0x94 c:/gnat/2017/bin/../lib/gcc/arm-eabi/6.3.1/armv7em/thumb/fpu/fpv4-sp-d16\libgcc.a(_arm_truncdfsf2.o)
 .debug_line    0x0000540f       0x85 c:/gnat/2017/bin/../lib/gcc/arm-eabi/6.3.1/armv7em/thumb/fpu/fpv4-sp-d16\libgcc.a(_aeabi_ldivmod.o)
 .debug_line    0x00005494       0x67 c:/gnat/2017/bin/../lib/gcc/arm-eabi/6.3.1/armv7em/thumb/fpu/fpv4-sp-d16\libgcc.a(_aeabi_uldivmod.o)
 .debug_line    0x000054fb      0x260 c:/gnat/2017/bin/../lib/gcc/arm-eabi/6.3.1/armv7em/thumb/fpu/fpv4-sp-d16\libgcc.a(_udivmoddi4.o)
 .debug_line    0x0000575b       0x67 c:/gnat/2017/bin/../lib/gcc/arm-eabi/6.3.1/armv7em/thumb/fpu/fpv4-sp-d16\libgcc.a(_dvmd_tls.o)

.debug_frame    0x00000000     0x1910
 *(.debug_frame)
 .debug_frame   0x00000000       0x28 generator.o
 .debug_frame   0x00000028       0x50 b__generator.o
 .debug_frame   0x00000078       0x40 C:\Users\u6013763\Documents\COMP4330Assi1\Objects\anu_base_board.o
 .debug_frame   0x000000b8      0x1c0 C:\Users\u6013763\Documents\COMP4330Assi1\Objects\stm32f4.o
 .debug_frame   0x00000278       0xd8 C:\Users\u6013763\Documents\COMP4330Assi1\Objects\stm32f4-general_purpose_ios.o
 .debug_frame   0x00000350      0x364 C:\Users\u6013763\Documents\COMP4330Assi1\Objects\stm32f4-general_purpose_ios-ops.o
 .debug_frame   0x000006b4       0x20 C:\Users\u6013763\Documents\COMP4330Assi1\Objects\stm32f4-interrupts_and_events.o
 .debug_frame   0x000006d4       0x94 C:\Users\u6013763\Documents\COMP4330Assi1\Objects\stm32f4-interrupts_and_events-ops.o
 .debug_frame   0x00000768      0x1c0 C:\Users\u6013763\Documents\COMP4330Assi1\Objects\stm32f4-reset_and_clock_control.o
 .debug_frame   0x00000928       0x90 C:\Users\u6013763\Documents\COMP4330Assi1\Objects\stm32f4-system_configuration_controller.o
 .debug_frame   0x000009b8       0x40 C:\Users\u6013763\Documents\COMP4330Assi1\Objects\stm32f4-system_configuration_controller-ops.o
 .debug_frame   0x000009f8      0x428 C:\Users\u6013763\Documents\COMP4330Assi1\Objects\stm32f4-timers.o
 .debug_frame   0x00000e20      0x1c0 C:\Users\u6013763\Documents\COMP4330Assi1\Objects\stm32f4-reset_and_clock_control-ops.o
 .debug_frame   0x00000fe0       0x4c C:\Users\u6013763\Documents\COMP4330Assi1\Objects\led_handling.o
 .debug_frame   0x0000102c       0xc0 C:\Users\u6013763\Documents\COMP4330Assi1\Objects\discovery_board-led_interface.o
 .debug_frame   0x000010ec       0x28 C:\Users\u6013763\Documents\COMP4330Assi1\Objects\last_chance_handler.o
 .debug_frame   0x00001114      0x160 C:\Users\u6013763\Documents\COMP4330Assi1\Objects\stm32f4-usart.o
 .debug_frame   0x00001274      0x138 C:\Users\u6013763\Documents\COMP4330Assi1\Objects\anu_base_board-com_interface.o
 .debug_frame   0x000013ac       0xf0 C:\Users\u6013763\Documents\COMP4330Assi1\Objects\anu_base_board-led_interface.o
 .debug_frame   0x0000149c      0x250 C:\Users\u6013763\Documents\COMP4330Assi1\Objects\generator_controllers.o
 .debug_frame   0x000016ec       0x38 C:\gnat\2017\arm-eabi\lib\gnat\ravenscar-sfp-stm32f4\adalib\libgnarl.a(s-tasdeb.o)
 .debug_frame   0x00001724       0x28 C:\gnat\2017\arm-eabi\lib\gnat\ravenscar-sfp-stm32f4\adalib\libgnat.a(s-assert.o)
 .debug_frame   0x0000174c       0xac c:/gnat/2017/bin/../lib/gcc/arm-eabi/6.3.1/armv7em/thumb/fpu/fpv4-sp-d16\libgcc.a(_arm_addsubdf3.o)
 .debug_frame   0x000017f8       0x50 c:/gnat/2017/bin/../lib/gcc/arm-eabi/6.3.1/armv7em/thumb/fpu/fpv4-sp-d16\libgcc.a(_arm_muldivdf3.o)
 .debug_frame   0x00001848       0x24 c:/gnat/2017/bin/../lib/gcc/arm-eabi/6.3.1/armv7em/thumb/fpu/fpv4-sp-d16\libgcc.a(_arm_truncdfsf2.o)
 .debug_frame   0x0000186c       0x44 c:/gnat/2017/bin/../lib/gcc/arm-eabi/6.3.1/armv7em/thumb/fpu/fpv4-sp-d16\libgcc.a(_aeabi_ldivmod.o)
 .debug_frame   0x000018b0       0x2c c:/gnat/2017/bin/../lib/gcc/arm-eabi/6.3.1/armv7em/thumb/fpu/fpv4-sp-d16\libgcc.a(_aeabi_uldivmod.o)
 .debug_frame   0x000018dc       0x34 c:/gnat/2017/bin/../lib/gcc/arm-eabi/6.3.1/armv7em/thumb/fpu/fpv4-sp-d16\libgcc.a(_udivmoddi4.o)

.debug_str      0x00000000     0x9576
 *(.debug_str)
 .debug_str     0x00000000      0x703 generator.o
                                0x71a (size before relaxing)
 .debug_str     0x00000703      0x58a b__generator.o
                                0x5c2 (size before relaxing)
 .debug_str     0x00000c8d      0x15d C:\Users\u6013763\Documents\COMP4330Assi1\Objects\anu_base_board.o
                                0x3a9 (size before relaxing)
 .debug_str     0x00000dea       0x56 C:\Users\u6013763\Documents\COMP4330Assi1\Objects\discovery_board.o
                                0x240 (size before relaxing)
 .debug_str     0x00000e40      0x319 C:\Users\u6013763\Documents\COMP4330Assi1\Objects\stm32f4.o
                                0x50b (size before relaxing)
 .debug_str     0x00001159      0xdd0 C:\Users\u6013763\Documents\COMP4330Assi1\Objects\stm32f4-general_purpose_ios.o
                               0x1199 (size before relaxing)
 .debug_str     0x00001f29      0x164 C:\Users\u6013763\Documents\COMP4330Assi1\Objects\discovery_board-config.o
                                0x500 (size before relaxing)
 .debug_str     0x0000208d     0x1460 C:\Users\u6013763\Documents\COMP4330Assi1\Objects\stm32f4-general_purpose_ios-ops.o
                               0x2155 (size before relaxing)
 .debug_str     0x000034ed       0x94 C:\Users\u6013763\Documents\COMP4330Assi1\Objects\stm32f4-interrupts_and_events.o
                                0x2cd (size before relaxing)
 .debug_str     0x00003581      0x280 C:\Users\u6013763\Documents\COMP4330Assi1\Objects\stm32f4-interrupts_and_events-ops.o
                                0x507 (size before relaxing)
 .debug_str     0x00003801      0x11c C:\Users\u6013763\Documents\COMP4330Assi1\Objects\stm32f4-reset_and_clock_control.o
                                0x454 (size before relaxing)
 .debug_str     0x0000391d       0x66 C:\Users\u6013763\Documents\COMP4330Assi1\Objects\stm32f4-system_configuration_controller.o
                                0x2d6 (size before relaxing)
 .debug_str     0x00003983      0x143 C:\Users\u6013763\Documents\COMP4330Assi1\Objects\stm32f4-system_configuration_controller-ops.o
                                0x56c (size before relaxing)
 .debug_str     0x00003ac6     0x1788 C:\Users\u6013763\Documents\COMP4330Assi1\Objects\stm32f4-timers.o
                               0x1c0f (size before relaxing)
 .debug_str     0x0000524e     0x120f C:\Users\u6013763\Documents\COMP4330Assi1\Objects\stm32f4-reset_and_clock_control-ops.o
                               0x17ea (size before relaxing)
 .debug_str     0x0000645d      0x160 C:\Users\u6013763\Documents\COMP4330Assi1\Objects\led_handling.o
                               0x1411 (size before relaxing)
 .debug_str     0x000065bd      0x17f C:\Users\u6013763\Documents\COMP4330Assi1\Objects\discovery_board-led_interface.o
                               0x125a (size before relaxing)
 .debug_str     0x0000673c       0x73 C:\Users\u6013763\Documents\COMP4330Assi1\Objects\last_chance_handler.o
                                0x552 (size before relaxing)
 .debug_str     0x000067af      0x946 C:\Users\u6013763\Documents\COMP4330Assi1\Objects\stm32f4-usart.o
                                0xd55 (size before relaxing)
 .debug_str     0x000070f5      0x1aa C:\Users\u6013763\Documents\COMP4330Assi1\Objects\anu_base_board-config.o
                                0x6a3 (size before relaxing)
 .debug_str     0x0000729f       0xfc C:\Users\u6013763\Documents\COMP4330Assi1\Objects\anu_base_board-com_interface.o
                               0x16ed (size before relaxing)
 .debug_str     0x0000739b       0xd0 C:\Users\u6013763\Documents\COMP4330Assi1\Objects\anu_base_board-led_interface.o
                               0x1225 (size before relaxing)
 .debug_str     0x0000746b      0xdca C:\Users\u6013763\Documents\COMP4330Assi1\Objects\generator_controllers.o
                               0x2dd9 (size before relaxing)
 .debug_str     0x00008235      0x312 C:\gnat\2017\arm-eabi\lib\gnat\ravenscar-sfp-stm32f4\adalib\libgnarl.a(s-tasdeb.o)
                                0xc43 (size before relaxing)
 .debug_str     0x00008547      0x409 C:\gnat\2017\arm-eabi\lib\gnat\ravenscar-sfp-stm32f4\adalib\libgnat.a(s-assert.o)
                                0x4a5 (size before relaxing)
 .debug_str     0x00008950      0xc26 c:/gnat/2017/bin/../lib/gcc/arm-eabi/6.3.1/armv7em/thumb/fpu/fpv4-sp-d16\libgcc.a(_udivmoddi4.o)
                                0xcbd (size before relaxing)

.debug_loc      0x00000000     0x70cb
 *(.debug_loc)
 .debug_loc     0x00000000       0x41 generator.o
 .debug_loc     0x00000041       0x3a C:\Users\u6013763\Documents\COMP4330Assi1\Objects\stm32f4-general_purpose_ios.o
 .debug_loc     0x0000007b     0x1fde C:\Users\u6013763\Documents\COMP4330Assi1\Objects\stm32f4-general_purpose_ios-ops.o
 .debug_loc     0x00002059      0x2b9 C:\Users\u6013763\Documents\COMP4330Assi1\Objects\stm32f4-interrupts_and_events-ops.o
 .debug_loc     0x00002312      0x513 C:\Users\u6013763\Documents\COMP4330Assi1\Objects\stm32f4-system_configuration_controller-ops.o
 .debug_loc     0x00002825      0x16f C:\Users\u6013763\Documents\COMP4330Assi1\Objects\stm32f4-timers.o
 .debug_loc     0x00002994     0x1fee C:\Users\u6013763\Documents\COMP4330Assi1\Objects\stm32f4-reset_and_clock_control-ops.o
 .debug_loc     0x00004982      0x61e C:\Users\u6013763\Documents\COMP4330Assi1\Objects\led_handling.o
 .debug_loc     0x00004fa0      0x189 C:\Users\u6013763\Documents\COMP4330Assi1\Objects\discovery_board-led_interface.o
 .debug_loc     0x00005129       0x6b C:\Users\u6013763\Documents\COMP4330Assi1\Objects\last_chance_handler.o
 .debug_loc     0x00005194       0x5b C:\Users\u6013763\Documents\COMP4330Assi1\Objects\stm32f4-usart.o
 .debug_loc     0x000051ef      0x605 C:\Users\u6013763\Documents\COMP4330Assi1\Objects\anu_base_board-com_interface.o
 .debug_loc     0x000057f4      0x358 C:\Users\u6013763\Documents\COMP4330Assi1\Objects\anu_base_board-led_interface.o
 .debug_loc     0x00005b4c      0x81f C:\Users\u6013763\Documents\COMP4330Assi1\Objects\generator_controllers.o
 .debug_loc     0x0000636b       0x18 C:\gnat\2017\arm-eabi\lib\gnat\ravenscar-sfp-stm32f4\adalib\libgnat.a(s-assert.o)
 .debug_loc     0x00006383      0xd48 c:/gnat/2017/bin/../lib/gcc/arm-eabi/6.3.1/armv7em/thumb/fpu/fpv4-sp-d16\libgcc.a(_udivmoddi4.o)

.debug_macinfo
 *(.debug_macinfo)

.debug_pubtypes
 *(.debug_pubtypes)

.debug_ranges   0x00000000      0xe30
 *(.debug_ranges)
 .debug_ranges  0x00000000       0x18 b__generator.o
 .debug_ranges  0x00000018      0x388 C:\Users\u6013763\Documents\COMP4330Assi1\Objects\stm32f4-general_purpose_ios-ops.o
 .debug_ranges  0x000003a0      0x150 C:\Users\u6013763\Documents\COMP4330Assi1\Objects\stm32f4-reset_and_clock_control-ops.o
 .debug_ranges  0x000004f0       0xe8 C:\Users\u6013763\Documents\COMP4330Assi1\Objects\led_handling.o
 .debug_ranges  0x000005d8       0xf0 C:\Users\u6013763\Documents\COMP4330Assi1\Objects\discovery_board-led_interface.o
 .debug_ranges  0x000006c8      0x460 C:\Users\u6013763\Documents\COMP4330Assi1\Objects\anu_base_board-com_interface.o
 .debug_ranges  0x00000b28      0x108 C:\Users\u6013763\Documents\COMP4330Assi1\Objects\anu_base_board-led_interface.o
 .debug_ranges  0x00000c30      0x110 C:\Users\u6013763\Documents\COMP4330Assi1\Objects\generator_controllers.o
 .debug_ranges  0x00000d40       0x10 C:\gnat\2017\arm-eabi\lib\gnat\ravenscar-sfp-stm32f4\adalib\libgnarl.a(s-tasdeb.o)
 .debug_ranges  0x00000d50       0x10 C:\gnat\2017\arm-eabi\lib\gnat\ravenscar-sfp-stm32f4\adalib\libgnat.a(s-assert.o)
 .debug_ranges  0x00000d60       0xd0 c:/gnat/2017/bin/../lib/gcc/arm-eabi/6.3.1/armv7em/thumb/fpu/fpv4-sp-d16\libgcc.a(_udivmoddi4.o)

.comment        0x00000000       0x37
 .comment       0x00000000       0x37 generator.o
                                 0x38 (size before relaxing)
 .comment       0x00000037       0x38 b__generator.o
 .comment       0x00000037       0x38 C:\Users\u6013763\Documents\COMP4330Assi1\Objects\anu_base_board.o
 .comment       0x00000037       0x38 C:\Users\u6013763\Documents\COMP4330Assi1\Objects\discovery_board.o
 .comment       0x00000037       0x38 C:\Users\u6013763\Documents\COMP4330Assi1\Objects\stm32f4.o
 .comment       0x00000037       0x38 C:\Users\u6013763\Documents\COMP4330Assi1\Objects\stm32f4-general_purpose_ios.o
 .comment       0x00000037       0x38 C:\Users\u6013763\Documents\COMP4330Assi1\Objects\discovery_board-config.o
 .comment       0x00000037       0x38 C:\Users\u6013763\Documents\COMP4330Assi1\Objects\stm32f4-general_purpose_ios-ops.o
 .comment       0x00000037       0x38 C:\Users\u6013763\Documents\COMP4330Assi1\Objects\stm32f4-interrupts_and_events.o
 .comment       0x00000037       0x38 C:\Users\u6013763\Documents\COMP4330Assi1\Objects\stm32f4-interrupts_and_events-ops.o
 .comment       0x00000037       0x38 C:\Users\u6013763\Documents\COMP4330Assi1\Objects\stm32f4-reset_and_clock_control.o
 .comment       0x00000037       0x38 C:\Users\u6013763\Documents\COMP4330Assi1\Objects\stm32f4-system_configuration_controller.o
 .comment       0x00000037       0x38 C:\Users\u6013763\Documents\COMP4330Assi1\Objects\stm32f4-system_configuration_controller-ops.o
 .comment       0x00000037       0x38 C:\Users\u6013763\Documents\COMP4330Assi1\Objects\stm32f4-timers.o
 .comment       0x00000037       0x38 C:\Users\u6013763\Documents\COMP4330Assi1\Objects\stm32f4-reset_and_clock_control-ops.o
 .comment       0x00000037       0x38 C:\Users\u6013763\Documents\COMP4330Assi1\Objects\led_handling.o
 .comment       0x00000037       0x38 C:\Users\u6013763\Documents\COMP4330Assi1\Objects\discovery_board-led_interface.o
 .comment       0x00000037       0x38 C:\Users\u6013763\Documents\COMP4330Assi1\Objects\last_chance_handler.o
 .comment       0x00000037       0x38 C:\Users\u6013763\Documents\COMP4330Assi1\Objects\stm32f4-usart.o
 .comment       0x00000037       0x38 C:\Users\u6013763\Documents\COMP4330Assi1\Objects\anu_base_board-config.o
 .comment       0x00000037       0x38 C:\Users\u6013763\Documents\COMP4330Assi1\Objects\anu_base_board-com_interface.o
 .comment       0x00000037       0x38 C:\Users\u6013763\Documents\COMP4330Assi1\Objects\anu_base_board-led_interface.o
 .comment       0x00000037       0x38 C:\Users\u6013763\Documents\COMP4330Assi1\Objects\generator_controllers.o
 .comment       0x00000037       0x38 C:\gnat\2017\arm-eabi\lib\gnat\ravenscar-sfp-stm32f4\adalib\libgnarl.a(s-tposen.o)
 .comment       0x00000037       0x38 C:\gnat\2017\arm-eabi\lib\gnat\ravenscar-sfp-stm32f4\adalib\libgnarl.a(s-tpobmu.o)
 .comment       0x00000037       0x38 C:\gnat\2017\arm-eabi\lib\gnat\ravenscar-sfp-stm32f4\adalib\libgnarl.a(s-taskin.o)
 .comment       0x00000037       0x38 C:\gnat\2017\arm-eabi\lib\gnat\ravenscar-sfp-stm32f4\adalib\libgnarl.a(s-tasdeb.o)
 .comment       0x00000037       0x38 C:\gnat\2017\arm-eabi\lib\gnat\ravenscar-sfp-stm32f4\adalib\libgnarl.a(s-tarest.o)
 .comment       0x00000037       0x38 C:\gnat\2017\arm-eabi\lib\gnat\ravenscar-sfp-stm32f4\adalib\libgnarl.a(s-taprop.o)
 .comment       0x00000037       0x38 C:\gnat\2017\arm-eabi\lib\gnat\ravenscar-sfp-stm32f4\adalib\libgnarl.a(s-taprob.o)
 .comment       0x00000037       0x38 C:\gnat\2017\arm-eabi\lib\gnat\ravenscar-sfp-stm32f4\adalib\libgnarl.a(s-parame.o)
 .comment       0x00000037       0x38 C:\gnat\2017\arm-eabi\lib\gnat\ravenscar-sfp-stm32f4\adalib\libgnarl.a(s-interr.o)
 .comment       0x00000037       0x38 C:\gnat\2017\arm-eabi\lib\gnat\ravenscar-sfp-stm32f4\adalib\libgnarl.a(s-bcprmu.o)
 .comment       0x00000037       0x38 C:\gnat\2017\arm-eabi\lib\gnat\ravenscar-sfp-stm32f4\adalib\libgnarl.a(s-bbtiev.o)
 .comment       0x00000037       0x38 C:\gnat\2017\arm-eabi\lib\gnat\ravenscar-sfp-stm32f4\adalib\libgnarl.a(s-bbthre.o)
 .comment       0x00000037       0x38 C:\gnat\2017\arm-eabi\lib\gnat\ravenscar-sfp-stm32f4\adalib\libgnarl.a(s-bbthqu.o)
 .comment       0x00000037       0x38 C:\gnat\2017\arm-eabi\lib\gnat\ravenscar-sfp-stm32f4\adalib\libgnarl.a(s-bbprot.o)
 .comment       0x00000037       0x38 C:\gnat\2017\arm-eabi\lib\gnat\ravenscar-sfp-stm32f4\adalib\libgnarl.a(a-sytaco.o)
 .comment       0x00000037       0x38 C:\gnat\2017\arm-eabi\lib\gnat\ravenscar-sfp-stm32f4\adalib\libgnarl.a(a-retide.o)
 .comment       0x00000037       0x38 C:\gnat\2017\arm-eabi\lib\gnat\ravenscar-sfp-stm32f4\adalib\libgnarl.a(a-reatim.o)
 .comment       0x00000037       0x38 C:\gnat\2017\arm-eabi\lib\gnat\ravenscar-sfp-stm32f4\adalib\libgnarl.a(s-bbinte.o)
 .comment       0x00000037       0x38 C:\gnat\2017\arm-eabi\lib\gnat\ravenscar-sfp-stm32f4\adalib\libgnarl.a(s-bbbosu.o)
 .comment       0x00000037       0x38 C:\gnat\2017\arm-eabi\lib\gnat\ravenscar-sfp-stm32f4\adalib\libgnarl.a(s-bbtime.o)
 .comment       0x00000037       0x38 C:\gnat\2017\arm-eabi\lib\gnat\ravenscar-sfp-stm32f4\adalib\libgnarl.a(s-bbcppr.o)
 .comment       0x00000037       0x38 C:\gnat\2017\arm-eabi\lib\gnat\ravenscar-sfp-stm32f4\adalib\libgnat.a(setup_pll.o)
 .comment       0x00000037       0x38 C:\gnat\2017\arm-eabi\lib\gnat\ravenscar-sfp-stm32f4\adalib\libgnat.a(s-macres.o)
 .comment       0x00000037       0x38 C:\gnat\2017\arm-eabi\lib\gnat\ravenscar-sfp-stm32f4\adalib\libgnat.a(s-assert.o)
 .comment       0x00000037       0x38 C:\gnat\2017\arm-eabi\lib\gnat\ravenscar-sfp-stm32f4\adalib\libgnat.a(s-fatflt.o)
 .comment       0x00000037       0x38 C:\gnat\2017\arm-eabi\lib\gnat\ravenscar-sfp-stm32f4\adalib\libgnat.a(s-memset.o)
 .comment       0x00000037       0x38 C:\gnat\2017\arm-eabi\lib\gnat\ravenscar-sfp-stm32f4\adalib\libgnat.a(s-memcom.o)
 .comment       0x00000037       0x38 C:\gnat\2017\arm-eabi\lib\gnat\ravenscar-sfp-stm32f4\adalib\libgnat.a(s-secsta.o)
 .comment       0x00000037       0x38 C:\gnat\2017\arm-eabi\lib\gnat\ravenscar-sfp-stm32f4\adalib\libgnat.a(s-bbmcpa.o)
 .comment       0x00000037       0x38 c:/gnat/2017/bin/../lib/gcc/arm-eabi/6.3.1/armv7em/thumb/fpu/fpv4-sp-d16\libgcc.a(_udivmoddi4.o)

.ARM.attributes
                0x00000000       0x37
 .ARM.attributes
                0x00000000       0x37 generator.o
 .ARM.attributes
                0x00000037       0x37 b__generator.o
 .ARM.attributes
                0x0000006e       0x37 C:\Users\u6013763\Documents\COMP4330Assi1\Objects\anu_base_board.o
 .ARM.attributes
                0x000000a5       0x37 C:\Users\u6013763\Documents\COMP4330Assi1\Objects\discovery_board.o
 .ARM.attributes
                0x000000dc       0x37 C:\Users\u6013763\Documents\COMP4330Assi1\Objects\stm32f4.o
 .ARM.attributes
                0x00000113       0x37 C:\Users\u6013763\Documents\COMP4330Assi1\Objects\stm32f4-general_purpose_ios.o
 .ARM.attributes
                0x0000014a       0x37 C:\Users\u6013763\Documents\COMP4330Assi1\Objects\discovery_board-config.o
 .ARM.attributes
                0x00000181       0x37 C:\Users\u6013763\Documents\COMP4330Assi1\Objects\stm32f4-general_purpose_ios-ops.o
 .ARM.attributes
                0x000001b8       0x37 C:\Users\u6013763\Documents\COMP4330Assi1\Objects\stm32f4-interrupts_and_events.o
 .ARM.attributes
                0x000001ef       0x37 C:\Users\u6013763\Documents\COMP4330Assi1\Objects\stm32f4-interrupts_and_events-ops.o
 .ARM.attributes
                0x00000226       0x37 C:\Users\u6013763\Documents\COMP4330Assi1\Objects\stm32f4-reset_and_clock_control.o
 .ARM.attributes
                0x0000025d       0x37 C:\Users\u6013763\Documents\COMP4330Assi1\Objects\stm32f4-system_configuration_controller.o
 .ARM.attributes
                0x00000294       0x37 C:\Users\u6013763\Documents\COMP4330Assi1\Objects\stm32f4-system_configuration_controller-ops.o
 .ARM.attributes
                0x000002cb       0x37 C:\Users\u6013763\Documents\COMP4330Assi1\Objects\stm32f4-timers.o
 .ARM.attributes
                0x00000302       0x37 C:\Users\u6013763\Documents\COMP4330Assi1\Objects\stm32f4-reset_and_clock_control-ops.o
 .ARM.attributes
                0x00000339       0x37 C:\Users\u6013763\Documents\COMP4330Assi1\Objects\led_handling.o
 .ARM.attributes
                0x00000370       0x37 C:\Users\u6013763\Documents\COMP4330Assi1\Objects\discovery_board-led_interface.o
 .ARM.attributes
                0x000003a7       0x37 C:\Users\u6013763\Documents\COMP4330Assi1\Objects\last_chance_handler.o
 .ARM.attributes
                0x000003de       0x37 C:\Users\u6013763\Documents\COMP4330Assi1\Objects\stm32f4-usart.o
 .ARM.attributes
                0x00000415       0x37 C:\Users\u6013763\Documents\COMP4330Assi1\Objects\anu_base_board-config.o
 .ARM.attributes
                0x0000044c       0x37 C:\Users\u6013763\Documents\COMP4330Assi1\Objects\anu_base_board-com_interface.o
 .ARM.attributes
                0x00000483       0x37 C:\Users\u6013763\Documents\COMP4330Assi1\Objects\anu_base_board-led_interface.o
 .ARM.attributes
                0x000004ba       0x37 C:\Users\u6013763\Documents\COMP4330Assi1\Objects\generator_controllers.o
 .ARM.attributes
                0x000004f1       0x37 C:\gnat\2017\arm-eabi\lib\gnat\ravenscar-sfp-stm32f4\adalib\libgnarl.a(s-tposen.o)
 .ARM.attributes
                0x00000528       0x37 C:\gnat\2017\arm-eabi\lib\gnat\ravenscar-sfp-stm32f4\adalib\libgnarl.a(s-tpobmu.o)
 .ARM.attributes
                0x0000055f       0x37 C:\gnat\2017\arm-eabi\lib\gnat\ravenscar-sfp-stm32f4\adalib\libgnarl.a(s-taskin.o)
 .ARM.attributes
                0x00000596       0x37 C:\gnat\2017\arm-eabi\lib\gnat\ravenscar-sfp-stm32f4\adalib\libgnarl.a(s-tasdeb.o)
 .ARM.attributes
                0x000005cd       0x37 C:\gnat\2017\arm-eabi\lib\gnat\ravenscar-sfp-stm32f4\adalib\libgnarl.a(s-tarest.o)
 .ARM.attributes
                0x00000604       0x37 C:\gnat\2017\arm-eabi\lib\gnat\ravenscar-sfp-stm32f4\adalib\libgnarl.a(s-taprop.o)
 .ARM.attributes
                0x0000063b       0x37 C:\gnat\2017\arm-eabi\lib\gnat\ravenscar-sfp-stm32f4\adalib\libgnarl.a(s-taprob.o)
 .ARM.attributes
                0x00000672       0x37 C:\gnat\2017\arm-eabi\lib\gnat\ravenscar-sfp-stm32f4\adalib\libgnarl.a(s-parame.o)
 .ARM.attributes
                0x000006a9       0x37 C:\gnat\2017\arm-eabi\lib\gnat\ravenscar-sfp-stm32f4\adalib\libgnarl.a(s-interr.o)
 .ARM.attributes
                0x000006e0       0x37 C:\gnat\2017\arm-eabi\lib\gnat\ravenscar-sfp-stm32f4\adalib\libgnarl.a(s-bcprmu.o)
 .ARM.attributes
                0x00000717       0x37 C:\gnat\2017\arm-eabi\lib\gnat\ravenscar-sfp-stm32f4\adalib\libgnarl.a(s-bbtiev.o)
 .ARM.attributes
                0x0000074e       0x37 C:\gnat\2017\arm-eabi\lib\gnat\ravenscar-sfp-stm32f4\adalib\libgnarl.a(s-bbthre.o)
 .ARM.attributes
                0x00000785       0x37 C:\gnat\2017\arm-eabi\lib\gnat\ravenscar-sfp-stm32f4\adalib\libgnarl.a(s-bbthqu.o)
 .ARM.attributes
                0x000007bc       0x37 C:\gnat\2017\arm-eabi\lib\gnat\ravenscar-sfp-stm32f4\adalib\libgnarl.a(s-bbprot.o)
 .ARM.attributes
                0x000007f3       0x37 C:\gnat\2017\arm-eabi\lib\gnat\ravenscar-sfp-stm32f4\adalib\libgnarl.a(a-sytaco.o)
 .ARM.attributes
                0x0000082a       0x37 C:\gnat\2017\arm-eabi\lib\gnat\ravenscar-sfp-stm32f4\adalib\libgnarl.a(a-retide.o)
 .ARM.attributes
                0x00000861       0x37 C:\gnat\2017\arm-eabi\lib\gnat\ravenscar-sfp-stm32f4\adalib\libgnarl.a(a-reatim.o)
 .ARM.attributes
                0x00000898       0x25 C:\gnat\2017\arm-eabi\lib\gnat\ravenscar-sfp-stm32f4\adalib\libgnarl.a(handler.o)
 .ARM.attributes
                0x000008bd       0x37 C:\gnat\2017\arm-eabi\lib\gnat\ravenscar-sfp-stm32f4\adalib\libgnarl.a(s-bbinte.o)
 .ARM.attributes
                0x000008f4       0x37 C:\gnat\2017\arm-eabi\lib\gnat\ravenscar-sfp-stm32f4\adalib\libgnarl.a(s-bbbosu.o)
 .ARM.attributes
                0x0000092b       0x37 C:\gnat\2017\arm-eabi\lib\gnat\ravenscar-sfp-stm32f4\adalib\libgnarl.a(s-bbtime.o)
 .ARM.attributes
                0x00000962       0x37 C:\gnat\2017\arm-eabi\lib\gnat\ravenscar-sfp-stm32f4\adalib\libgnarl.a(s-bbcppr.o)
 .ARM.attributes
                0x00000999       0x25 C:\gnat\2017\arm-eabi\lib\gnat\ravenscar-sfp-stm32f4\adalib\libgnat.a(start-rom.o)
 .ARM.attributes
                0x000009be       0x25 C:\gnat\2017\arm-eabi\lib\gnat\ravenscar-sfp-stm32f4\adalib\libgnat.a(start-common.o)
 .ARM.attributes
                0x000009e3       0x25 C:\gnat\2017\arm-eabi\lib\gnat\ravenscar-sfp-stm32f4\adalib\libgnat.a(breakpoint_handler.o)
 .ARM.attributes
                0x00000a08       0x37 C:\gnat\2017\arm-eabi\lib\gnat\ravenscar-sfp-stm32f4\adalib\libgnat.a(setup_pll.o)
 .ARM.attributes
                0x00000a3f       0x37 C:\gnat\2017\arm-eabi\lib\gnat\ravenscar-sfp-stm32f4\adalib\libgnat.a(s-macres.o)
 .ARM.attributes
                0x00000a76       0x37 C:\gnat\2017\arm-eabi\lib\gnat\ravenscar-sfp-stm32f4\adalib\libgnat.a(s-assert.o)
 .ARM.attributes
                0x00000aad       0x37 C:\gnat\2017\arm-eabi\lib\gnat\ravenscar-sfp-stm32f4\adalib\libgnat.a(s-fatflt.o)
 .ARM.attributes
                0x00000ae4       0x37 C:\gnat\2017\arm-eabi\lib\gnat\ravenscar-sfp-stm32f4\adalib\libgnat.a(s-memset.o)
 .ARM.attributes
                0x00000b1b       0x37 C:\gnat\2017\arm-eabi\lib\gnat\ravenscar-sfp-stm32f4\adalib\libgnat.a(s-memcom.o)
 .ARM.attributes
                0x00000b52       0x37 C:\gnat\2017\arm-eabi\lib\gnat\ravenscar-sfp-stm32f4\adalib\libgnat.a(s-secsta.o)
 .ARM.attributes
                0x00000b89       0x37 C:\gnat\2017\arm-eabi\lib\gnat\ravenscar-sfp-stm32f4\adalib\libgnat.a(s-bbmcpa.o)
 .ARM.attributes
                0x00000bc0       0x22 c:/gnat/2017/bin/../lib/gcc/arm-eabi/6.3.1/armv7em/thumb/fpu/fpv4-sp-d16\libgcc.a(_arm_addsubdf3.o)
 .ARM.attributes
                0x00000be2       0x22 c:/gnat/2017/bin/../lib/gcc/arm-eabi/6.3.1/armv7em/thumb/fpu/fpv4-sp-d16\libgcc.a(_arm_muldivdf3.o)
 .ARM.attributes
                0x00000c04       0x22 c:/gnat/2017/bin/../lib/gcc/arm-eabi/6.3.1/armv7em/thumb/fpu/fpv4-sp-d16\libgcc.a(_arm_truncdfsf2.o)
 .ARM.attributes
                0x00000c26       0x22 c:/gnat/2017/bin/../lib/gcc/arm-eabi/6.3.1/armv7em/thumb/fpu/fpv4-sp-d16\libgcc.a(_aeabi_ldivmod.o)
 .ARM.attributes
                0x00000c48       0x22 c:/gnat/2017/bin/../lib/gcc/arm-eabi/6.3.1/armv7em/thumb/fpu/fpv4-sp-d16\libgcc.a(_aeabi_uldivmod.o)
 .ARM.attributes
                0x00000c6a       0x34 c:/gnat/2017/bin/../lib/gcc/arm-eabi/6.3.1/armv7em/thumb/fpu/fpv4-sp-d16\libgcc.a(_udivmoddi4.o)
 .ARM.attributes
                0x00000c9e       0x22 c:/gnat/2017/bin/../lib/gcc/arm-eabi/6.3.1/armv7em/thumb/fpu/fpv4-sp-d16\libgcc.a(_dvmd_tls.o)

.gnu.attributes
 *(.gnu.attributes)

/DISCARD/
 *(.note.GNU-stack)
 *(.gnu_debuglink)
 *(.gnu.lto_*)
OUTPUT(C:\Users\u6013763\Documents\COMP4330Assi1\Executables\\generator elf32-littlearm)
